Component: ARM Compiler 5.06 update 1 (build 61) Tool: armlink [4d35a8]

==============================================================================

Section Cross References

    boot_vectors.o(RESET) refers to boot_vectors.o(STACK) for __initial_sp
    boot_vectors.o(RESET) refers to boot_vectors.o(.text) for Reset_Handler
    boot_vectors.o(RESET) refers to systick.o(.text) for SysTick_Handler
    boot_vectors.o(RESET) refers to rwble.o(.text) for BLE_WAKEUP_LP_Handler
    boot_vectors.o(RESET) refers to wkupct_quadec.o(.text) for WKUP_QUADEC_Handler
    boot_vectors.o(RESET) refers to gpio.o(.text) for GPIO0_Handler
    boot_vectors.o(.text) refers to system_armcm0.o(.text) for SystemInit
    boot_vectors.o(.text) refers to entry.o(.ARM.Collect$$$$00000000) for __main
    boot_vectors.o(.text) refers to nmi_handler.o(.text) for NMI_HandlerC
    boot_vectors.o(.text) refers to hardfault_handler.o(.text) for HardFault_HandlerC
    boot_vectors.o(.text) refers to arch_patch.o(.text) for SVC_Handler_c
    nvds.o(.text) refers to spi_flash.o(.text) for spi_flash_read_data
    nvds.o(.text) refers to spi.o(.text) for spi_release
    nvds.o(.text) refers to gpio.o(.text) for GPIO_ConfigurePin
    nvds.o(.text) refers to nvds.o(retention_mem_area0) for retention_mem_area0
    nvds.o(.text) refers to nvds.o(.constdata) for .constdata
    arch_main.o(.text) refers to arch_system.o(.text) for system_init
    arch_main.o(.text) refers to rwip.o(.text) for rwip_sleep
    arch_main.o(.text) refers to jump_table.o(jump_table_mem_area) for jump_table_base
    arch_main.o(.text) refers to rwble.o(retention_mem_area0) for fine_hit
    arch_main.o(.constdata) refers to user_sps_device.o(.text) for user_on_init
    jump_table.o(jump_table_mem_area) refers to arch_main.o(.text) for main_func
    jump_table.o(jump_table_mem_area) refers to rf_580.o(.text) for rf_init_func
    jump_table.o(jump_table_mem_area) refers to prf_utils.o(.text) for prf_init_func
    jump_table.o(jump_table_mem_area) refers to arch_system.o(.text) for uart_flow_off_func
    jump_table.o(jump_table_mem_area) refers to rwble.o(.text) for lld_sleep_compensate_func_patched
    jump_table.o(jump_table_mem_area) refers to jump_table.o(heap_mem_area_not_ret) for rwip_heap_non_ret
    jump_table.o(jump_table_mem_area) refers to jump_table.o(heap_env_area) for rwip_heap_env_ret
    jump_table.o(jump_table_mem_area) refers to jump_table.o(heap_db_area) for rwip_heap_db_ret
    jump_table.o(jump_table_mem_area) refers to jump_table.o(heap_msg_area) for rwip_heap_msg_ret
    jump_table.o(jump_table_mem_area) refers to ke_task.obj(.text) for ke_task_init_func
    jump_table.o(jump_table_mem_area) refers to nvds.o(.text) for custom_nvds_get_func
    jump_table.o(jump_table_mem_area) refers to jump_table.o(.constdata) for LUT_CFG
    arch_sleep.o(.text) refers to arch_sleep.o(retention_mem_area0) for retention_mem_area0
    arch_sleep.o(.text) refers to arch_sleep.o(.text) for arch_set_deep_sleep
    arch_sleep.o(.text) refers to arch_sleep.o(retention_mem_area0) for retention_mem_area0
    arch_sleep.o(.text) refers to arch_sleep.o(.text) for arch_get_sleep_mode
    arch_sleep.o(.text) refers to arch_sleep.o(retention_mem_area0) for retention_mem_area0
    arch_sleep.o(.text) refers to arch_sleep.o(retention_mem_area0) for retention_mem_area0
    arch_sleep.o(.text) refers to arch_sleep.o(retention_mem_area0) for retention_mem_area0
    arch_sleep.o(.text) refers to rwble.o(retention_mem_area0) for arch_rwble_last_event
    arch_system.o(.text) refers to arch_system.o(retention_mem_area0) for retention_mem_area0
    arch_system.o(.text) refers to trng.o(.text) for trng_acquire
    arch_system.o(.text) refers to arch_sleep.o(.text) for arch_get_sleep_mode
    arch_system.o(.text) refers to gpio.o(.text) for GPIO_init
    arch_system.o(.text) refers to nvds.o(.text) for nvds_read_bdaddr_from_da14583_flash
    arch_system.o(.text) refers to user_periph_setup.o(.text) for periph_init
    arch_system.o(.text) refers to rf_580.o(.text) for iq_trim_from_otp
    arch_system.o(.text) refers to arch_patch.o(.text) for patch_llm_task
    arch_system.o(.text) refers to llc.obj(.text) for patch_llc_task
    arch_system.o(.text) refers to app.o(.text) for app_init
    arch_system.o(.text) refers to user_sps_device.o(.text) for user_on_init
    arch_system.o(.text) refers to arch_system.o(retention_mem_area0) for retention_mem_area0
    arch_system.o(.text) refers to arch_main.o(retention_mem_area0) for sys_startup_flag
    arch_system.o(.text) refers to arch_system.o(.data) for .data
    arch_system.o(.constdata) refers to user_sps_device.o(.text) for user_on_init
    arch_patch.o(.text) refers to arch_patch.o(.constdata) for .constdata
    arch_patch.o(.constdata) refers to arch_patch.o(.text) for my_lld_data_ind_handler
    arch_patch.o(.constdata) refers to arch_patch.o(.constdata) for my_llm_default_state
    arch_patch.o(.constdata) refers to arch_patch.o(.constdata) for my_llm_default_handler
    arch_patch.o(.constdata) refers to arch_patch.o(.text) for cmp_abs_time
    arch_patch.o(.constdata) refers to atts_task.obj(.text) for l2cc_pdu_recv_ind_handler
    arch_patch.o(.constdata) refers to smpc.obj(.text) for smpc_send_pairing_req_ind
    arch_patch.o(.constdata) refers to smpc_task.obj(.text) for smpc_pairing_cfm_handler
    arch_patch.o(.constdata) refers to gapm_util.obj(.text) for patched_gapm_adv_op_sanity
    smpc_task.obj(.text) refers to smpc.obj(.text) for smpc_send_pairing_req_ind
    llc.obj(.text) refers to ch_map.obj(.text) for my_llc_con_update_req_ind
    llc.obj(.text) refers to llc.obj(retention_mem_area0) for retention_mem_area0
    llc.obj(.text) refers to llc.obj(.constdata) for .constdata
    llc.obj(.constdata) refers to llc.obj(.text) for my_llc_le_con_update_cmd_handler
    llc.obj(.constdata) refers to llc.obj(.text) for my_lld_stop_ind_handler
    llc.obj(.constdata) refers to llc.obj(.constdata) for my_llc_stopping
    llc.obj(.constdata) refers to llc.obj(.constdata) for my_llc_default_state
    llc.obj(.constdata) refers to llc.obj(.constdata) for my_llc_state_handler
    llc.obj(.constdata) refers to llc.obj(.constdata) for my_llc_default_handler
    gpio.o(.text) refers to gpio.o(.bss) for .bss
    gpio.o(.text) refers to gpio.o(.text) for gpioshift16
    battery.o(.text) refers to adc.o(.text) for adc_calibrate
    trng.o(.text) refers to rf_580.o(.text) for rf_regs
    systick.o(.text) refers to systick.o(.bss) for .bss
    systick.o(.text) refers to systick.o(.bss) for .bss
    systick.o(.text) refers to systick.o(.text) for systick_start
    systick.o(.text) refers to systick.o(.text) for systick_stop
    spi.o(.text) refers to gpio.o(.text) for GPIO_SetInactive
    spi.o(.text) refers to spi.o(.bss) for .bss
    wkupct_quadec.o(.text) refers to wkupct_quadec.o(retention_mem_area0) for retention_mem_area0
    wkupct_quadec.o(.text) refers to syscntl.o(.text) for syscntl_use_highest_amba_clocks
    wkupct_quadec.o(.text) refers to wkupct_quadec.o(retention_mem_area0) for retention_mem_area0
    wkupct_quadec.o(.text) refers to wkupct_quadec.o(.text) for NVIC_SetPriority
    wkupct_quadec.o(.text) refers to wkupct_quadec.o(retention_mem_area0) for retention_mem_area0
    wkupct_quadec.o(.text) refers to wkupct_quadec.o(.text) for wkupct_quad_disable_IRQ
    wkupct_quadec.o(.text) refers to wkupct_quadec.o(retention_mem_area0) for retention_mem_area0
    wkupct_quadec.o(.text) refers to wkupct_quadec.o(retention_mem_area0) for retention_mem_area0
    wkupct_quadec.o(.text) refers to wkupct_quadec.o(retention_mem_area0) for retention_mem_area0
    wkupct_quadec.o(.text) refers to wkupct_quadec.o(.text) for wkupct_quad_disable_IRQ
    wkupct_quadec.o(.text) refers to wkupct_quadec.o(retention_mem_area0) for retention_mem_area0
    wkupct_quadec.o(.text) refers to wkupct_quadec.o(.text) for quad_decoder_disable_irq
    wkupct_quadec.o(.text) refers to wkupct_quadec.o(.text) for NVIC_SetPriority
    wkupct_quadec.o(.text) refers to wkupct_quadec.o(retention_mem_area0) for retention_mem_area0
    spi_flash.o(.text) refers to spi.o(.text) for spi_set_bitmode
    spi_flash.o(.text) refers to spi_flash.o(.bss) for .bss
    spi_flash.o(.text) refers to spi_flash.o(.constdata) for .constdata
    spi_flash.o(.text) refers to spi_flash.o(.text) for spi_flash_wait_till_ready
    spi_flash.o(.text) refers to spi.o(.text) for spi_set_bitmode
    spi_flash.o(.text) refers to spi_flash.o(.text) for spi_flash_wait_till_ready
    spi_flash.o(.text) refers to spi.o(.text) for spi_set_bitmode
    spi_flash.o(.text) refers to spi_flash.o(.text) for spi_flash_wait_till_ready
    spi_flash.o(.text) refers to spi.o(.text) for spi_set_bitmode
    spi_flash.o(.text) refers to spi_flash.o(.text) for spi_flash_set_write_enable
    spi_flash.o(.text) refers to spi.o(.text) for spi_set_bitmode
    spi_flash.o(.text) refers to spi_flash.o(.text) for spi_flash_wait_till_ready
    spi_flash.o(.text) refers to spi.o(.text) for spi_set_bitmode
    spi_flash.o(.text) refers to spi_flash.o(.text) for spi_flash_set_write_enable
    spi_flash.o(.text) refers to spi_flash.o(.text) for spi_flash_write_status_reg
    spi_flash.o(.text) refers to spi_flash.o(.bss) for .bss
    spi_flash.o(.text) refers to spi_flash.o(.text) for spi_flash_configure_memory_protection
    spi_flash.o(.text) refers to spi_flash.o(.text) for spi_flash_chip_erase
    spi_flash.o(.text) refers to spi_flash.o(.bss) for .bss
    spi_flash.o(.text) refers to spi_flash.o(.text) for spi_flash_wait_till_ready
    spi_flash.o(.text) refers to spi.o(.text) for spi_set_bitmode
    spi_flash.o(.text) refers to spi_flash.o(.bss) for .bss
    spi_flash.o(.text) refers to spi.o(.text) for spi_set_bitmode
    spi_flash.o(.text) refers to spi_flash.o(.text) for spi_flash_page_fill
    spi_flash.o(.text) refers to spi_flash.o(.bss) for .bss
    rf_580.o(.text) refers to rf_580.o(retention_mem_area0) for retention_mem_area0
    rf_580.o(.text) refers to jump_table.o(jump_table_mem_area) for jump_table_base
    rf_580.o(.text) refers to rf_580.o(retention_mem_area0) for retention_mem_area0
    rf_580.o(.text) refers to rf_580.o(retention_mem_area0) for retention_mem_area0
    rf_580.o(.text) refers to rf_580.o(retention_mem_area0) for retention_mem_area0
    rwble.o(.text) refers to arch_system.o(.text) for lld_sleep_lpcycles_2_us_sel_func
    rwble.o(.text) refers to user_periph_setup.o(.text) for periph_init
    rwble.o(.text) refers to syscntl.o(.text) for syscntl_use_lowest_amba_clocks
    rwble.o(.text) refers to adc.o(.text) for adc_get_vbat_sample
    rwble.o(.text) refers to jump_table.o(jump_table_mem_area) for jump_table_base
    rwble.o(.text) refers to rwble.o(retention_mem_area0) for retention_mem_area0
    rwip.o(.text) refers to arch_sleep.o(.text) for arch_ble_ext_wakeup_get
    rwip.o(.text) refers to arch_system.o(.text) for check_sys_startup_period
    rwip.o(.text) refers to syscntl.o(.text) for syscntl_use_highest_amba_clocks
    rwip.o(.text) refers to jump_table.o(jump_table_mem_area) for jump_table_base
    rwip.o(.text) refers to rwble.o(retention_mem_area0) for set_boost_low_vbat1v_overhead
    prf_utils.o(.text) refers to sps_server.o(.text) for sps_server_init
    prf_utils.o(.text) refers to bass.o(.text) for bass_init
    prf_utils.o(.text) refers to spotar.o(.text) for spotar_init
    prf_utils.o(.text) refers to diss.o(.text) for diss_init
    bass.o(.text) refers to bass.o(retention_mem_area0) for retention_mem_area0
    bass.o(.text) refers to bass.o(.constdata) for .constdata
    bass.o(.constdata) refers to bass.o(.constdata) for bas_svc
    bass.o(.constdata) refers to bass.o(.constdata) for bas_batt_level_char
    bass.o(.constdata) refers to bass_task.o(.constdata) for bass_state_handler
    bass.o(.constdata) refers to bass_task.o(.constdata) for bass_default_handler
    bass.o(.constdata) refers to bass_task.o(retention_mem_area0) for bass_state
    bass_task.o(.text) refers to prf_utils.o(.text) for prf_server_error_ind_send
    bass_task.o(.text) refers to bass.o(.text) for bass_batt_level_upd_cfm_send
    bass_task.o(.text) refers to bass.o(retention_mem_area0) for bass_env
    bass_task.o(.text) refers to bass.o(.constdata) for bas_att_db
    bass_task.o(.constdata) refers to bass_task.o(.text) for bass_create_db_req_handler
    bass_task.o(.constdata) refers to bass_task.o(.text) for bass_enable_req_handler
    bass_task.o(.constdata) refers to bass_task.o(.text) for bass_batt_level_upd_req_handler
    bass_task.o(.constdata) refers to bass_task.o(.text) for gapc_disconnect_ind_handler
    bass_task.o(.constdata) refers to bass_task.o(.constdata) for bass_disabled
    bass_task.o(.constdata) refers to bass_task.o(.constdata) for bass_idle
    bass_task.o(.constdata) refers to bass_task.o(.constdata) for bass_connected
    bass_task.o(.constdata) refers to bass_task.o(.constdata) for bass_default_state
    spotar.o(.text) refers to spotar.o(retention_mem_area0) for retention_mem_area0
    spotar.o(.text) refers to spotar.o(.constdata) for .constdata
    spotar.o(.text) refers to spotar.o(retention_mem_area0) for retention_mem_area0
    spotar.o(.constdata) refers to spotar_task.o(.constdata) for spotar_state_handler
    spotar.o(.constdata) refers to spotar_task.o(.constdata) for spotar_default_handler
    spotar.o(.constdata) refers to spotar_task.o(retention_mem_area0) for spotar_state
    spotar_task.o(.text) refers to prf_utils.o(.text) for prf_server_send_event
    spotar_task.o(.text) refers to spotar.o(retention_mem_area0) for spotar_env
    spotar_task.o(.text) refers to spotar.o(.constdata) for spotar_service
    spotar_task.o(.text) refers to spotar.o(.constdata) for spotar_patch_mem_dev_val
    spotar_task.o(.text) refers to spotar.o(.data) for spotar_patch_mem_dev_char
    spotar_task.o(.text) refers to spotar.o(.constdata) for spotar_gpio_map_val
    spotar_task.o(.text) refers to spotar.o(.data) for spotar_gpio_map_char
    spotar_task.o(.text) refers to spotar.o(.constdata) for spotar_patch_mem_info_val
    spotar_task.o(.text) refers to spotar.o(.data) for spotar_patch_mem_info_char
    spotar_task.o(.text) refers to spotar.o(.constdata) for spotar_patch_len_val
    spotar_task.o(.text) refers to spotar.o(.data) for spotar_patch_len_char
    spotar_task.o(.text) refers to spotar.o(.constdata) for spotar_patch_data_val
    spotar_task.o(.text) refers to spotar.o(.data) for spotar_patch_data_char
    spotar_task.o(.text) refers to spotar.o(.constdata) for spotar_patch_status_val
    spotar_task.o(.text) refers to spotar.o(.data) for spotar_patch_status_char
    spotar_task.o(.text) refers to spotar.o(.text) for spotar_disable
    spotar_task.o(.constdata) refers to spotar_task.o(.text) for spotar_create_db_req_handler
    spotar_task.o(.constdata) refers to spotar_task.o(.text) for spotar_enable_req_handler
    spotar_task.o(.constdata) refers to spotar_task.o(.text) for gattc_write_cmd_ind_handler
    spotar_task.o(.constdata) refers to spotar_task.o(.text) for gapc_disconnect_ind_handler
    spotar_task.o(.constdata) refers to spotar_task.o(.constdata) for spotar_disabled
    spotar_task.o(.constdata) refers to spotar_task.o(.constdata) for spotar_idle
    spotar_task.o(.constdata) refers to spotar_task.o(.constdata) for spotar_active
    spotar_task.o(.constdata) refers to spotar_task.o(.constdata) for spotar_default_state
    diss.o(.text) refers to diss.o(retention_mem_area0) for retention_mem_area0
    diss.o(.text) refers to diss.o(.constdata) for .constdata
    diss.o(.constdata) refers to diss.o(.constdata) for diss_dis_svc
    diss.o(.constdata) refers to diss.o(.constdata) for diss_manufacturer_name_char
    diss.o(.constdata) refers to diss.o(.constdata) for diss_model_nb_str_char
    diss.o(.constdata) refers to diss.o(.constdata) for diss_serial_nb_str_char
    diss.o(.constdata) refers to diss.o(.constdata) for diss_hard_rev_str_char
    diss.o(.constdata) refers to diss.o(.constdata) for diss_firm_rev_str_char
    diss.o(.constdata) refers to diss.o(.constdata) for diss_sw_rev_str_char
    diss.o(.constdata) refers to diss.o(.constdata) for diss_system_id_char
    diss.o(.constdata) refers to diss.o(.constdata) for diss_ieee_char
    diss.o(.constdata) refers to diss.o(.constdata) for diss_pnp_id_char
    diss.o(.constdata) refers to diss_task.o(.constdata) for diss_state_handler
    diss.o(.constdata) refers to diss_task.o(.constdata) for diss_default_handler
    diss.o(.constdata) refers to diss_task.o(retention_mem_area0) for diss_state
    diss_task.o(.text) refers to diss.o(.text) for diss_compute_cfg_flag
    diss_task.o(.text) refers to prf_utils.o(.text) for prf_server_error_ind_send
    diss_task.o(.text) refers to diss.o(retention_mem_area0) for diss_env
    diss_task.o(.text) refers to diss.o(.constdata) for diss_att_db
    diss_task.o(.constdata) refers to diss_task.o(.text) for diss_create_db_req_handler
    diss_task.o(.constdata) refers to diss_task.o(.text) for diss_set_char_val_req_handler
    diss_task.o(.constdata) refers to diss_task.o(.text) for gapc_disconnect_ind_handler
    diss_task.o(.constdata) refers to diss_task.o(.constdata) for diss_disabled
    diss_task.o(.constdata) refers to diss_task.o(.constdata) for diss_idle
    diss_task.o(.constdata) refers to diss_task.o(.constdata) for diss_default_state
    app_default_handlers.o(.text) refers to app.o(.text) for app_easy_gap_undirected_advertise_start
    app_default_handlers.o(.text) refers to user_periph_setup.o(.text) for system_off
    app_default_handlers.o(.text) refers to app_bass.o(.text) for app_batt_init
    app_default_handlers.o(.text) refers to app_diss.o(.text) for app_dis_init
    app_default_handlers.o(.text) refers to app_spotar.o(.text) for app_spotar_init
    app_default_handlers.o(.text) refers to arch_sleep.o(.text) for arch_set_sleep_mode
    app_default_handlers.o(.text) refers to user_sps_device.o(.bss) for connected
    app_default_handlers.o(.text) refers to app.o(retention_mem_area0) for app_env
    app_default_handlers.o(.text) refers to app_easy_security.o(.text) for app_easy_security_send_pairing_rsp
    app_default_handlers.o(.text) refers to app_security.o(.text) for app_sec_gen_tk
    app_default_handlers.o(.text) refers to app_easy_security.o(.text) for app_easy_security_set_tk
    app_default_handlers.o(.text) refers to app_easy_security.o(.text) for app_easy_security_tk_exch
    app_default_handlers.o(.text) refers to app_easy_security.o(.text) for app_easy_security_csrk_exch
    app_default_handlers.o(.text) refers to app_security.o(.text) for app_sec_gen_ltk
    app_default_handlers.o(.text) refers to app_easy_security.o(.text) for app_easy_security_set_ltk_exch_from_sec_env
    app_default_handlers.o(.text) refers to app_easy_security.o(.text) for app_easy_security_ltk_exch
    app_default_handlers.o(.text) refers to app_easy_security.o(.text) for app_easy_security_validate_encrypt_req_against_env
    app_default_handlers.o(.text) refers to app.o(.text) for app_easy_gap_confirm
    app_default_handlers.o(.text) refers to app_easy_security.o(.text) for app_easy_security_set_encrypt_req_valid
    app_default_handlers.o(.text) refers to app_easy_security.o(.text) for app_easy_security_encrypt_cfm
    app_default_handlers.o(.text) refers to app_easy_security.o(.text) for app_easy_security_set_encrypt_req_invalid
    app_default_handlers.o(.text) refers to app.o(.text) for app_easy_gap_disconnect
    app_default_handlers.o(.text) refers to app_security.o(retention_mem_area0) for app_sec_env
    app_default_handlers.o(.constdata) refers to app_default_handlers.o(.text) for default_advertise_operation
    app.o(.text) refers to malloc.o(i.malloc) for malloc
    app.o(.text) refers to malloc.o(i.free) for free
    app.o(.text) refers to app.o(.constdata) for .constdata
    app.o(.text) refers to app.o(retention_mem_area0) for retention_mem_area0
    app.o(.text) refers to app.o(.text) for app_easy_gap_adv_read_from_NVDS
    app.o(.text) refers to app.o(retention_mem_area0) for retention_mem_area0
    app.o(.text) refers to app.o(retention_mem_area0) for retention_mem_area0
    app.o(.text) refers to app.o(.constdata) for .constdata
    app.o(.text) refers to app.o(retention_mem_area0) for retention_mem_area0
    app.o(.text) refers to app.o(.text) for app_easy_gap_advertise_stop
    app.o(.text) refers to app.o(retention_mem_area0) for retention_mem_area0
    app.o(.text) refers to app.o(retention_mem_area0) for retention_mem_area0
    app.o(.text) refers to app.o(retention_mem_area0) for retention_mem_area0
    app.o(.text) refers to app.o(retention_mem_area0) for retention_mem_area0
    app.o(.text) refers to app.o(.text) for app_easy_gap_undirected_advertise_start_create_msg
    app.o(.text) refers to app.o(.text) for app_easy_gap_directed_advertise_start_create_msg
    app.o(.text) refers to app.o(.text) for app_easy_gap_directed_advertise_start_create_msg
    app.o(.text) refers to app.o(retention_mem_area0) for retention_mem_area0
    app.o(.text) refers to app.o(.text) for app_easy_gap_non_connectable_advertise_start_create_msg
    app.o(.text) refers to app.o(.text) for app_easy_gap_non_connectable_advertise_start_create_msg
    app.o(.text) refers to app.o(retention_mem_area0) for retention_mem_area0
    app.o(.text) refers to app_easy_timer.o(.text) for app_easy_timer_cancel
    app.o(.text) refers to app.o(.text) for app_easy_gap_undirected_advertise_start
    app.o(.text) refers to app.o(retention_mem_area0) for retention_mem_area0
    app.o(.text) refers to app.o(.text) for app_easy_gap_advertise_stop_handler
    app.o(.text) refers to app_easy_timer.o(.text) for app_easy_timer_cancel
    app.o(.text) refers to app.o(retention_mem_area0) for retention_mem_area0
    app.o(.text) refers to app.o(.text) for app_easy_gap_param_update_msg_create
    app.o(.text) refers to app.o(.text) for app_easy_gap_start_connection_to_msg_create
    app.o(.text) refers to app.o(.text) for app_easy_gap_start_connection_to_msg_create
    app.o(.text) refers to app.o(.text) for app_easy_gap_start_connection_to_msg_create
    app.o(.text) refers to app.o(retention_mem_area0) for retention_mem_area0
    app.o(.text) refers to app.o(.text) for app_easy_gap_dev_config_create_msg
    app.o(.text) refers to app.o(retention_mem_area0) for retention_mem_area0
    app.o(.constdata) refers to user_spss.o(.text) for user_sps_db_create
    app.o(.constdata) refers to app_bass.o(.text) for app_bass_create_db
    app.o(.constdata) refers to app_diss.o(.text) for app_diss_create_db
    app.o(.constdata) refers to app_spotar.o(.text) for app_spotar_create_db
    app.o(.constdata) refers to app_task.o(.constdata) for app_default_handler
    app.o(.constdata) refers to app_task.o(retention_mem_area0) for app_state
    app_task.o(.text) refers to app_entry_point.o(.text) for app_std_process_event
    app_task.o(.text) refers to app.o(.text) for app_easy_gap_dev_configure
    app_task.o(.text) refers to app_default_handlers.o(.text) for default_app_on_set_dev_config_complete
    app_task.o(.text) refers to user_sps_device.o(.text) for user_on_connect_failed
    app_task.o(.text) refers to app_task.o(.constdata) for .constdata
    app_task.o(.text) refers to app.o(retention_mem_area0) for app_env
    app_task.o(.constdata) refers to user_sps_device.o(.text) for user_on_connection
    app_task.o(.constdata) refers to app_default_handlers.o(.text) for default_app_on_set_dev_config_complete
    app_task.o(.constdata) refers to user_sps_device.o(.text) for user_process_catch
    app_task.o(.constdata) refers to app_task.o(.text) for gapm_device_ready_ind_handler
    app_task.o(.constdata) refers to app_entry_point.o(.text) for app_entry_point_handler
    app_task.o(.constdata) refers to app_task.o(.constdata) for app_default_state
    app_security.o(.text) refers to app_security.o(retention_mem_area0) for retention_mem_area0
    app_security_task.o(.text) refers to app.o(.text) for app_easy_gap_disconnect
    app_security_task.o(.text) refers to app_security.o(retention_mem_area0) for app_sec_env
    app_security_task.o(.text) refers to app_security_task.o(.constdata) for .constdata
    app_security_task.o(.text) refers to app.o(retention_mem_area0) for app_env
    app_security_task.o(.constdata) refers to user_sps_device.o(.text) for user_on_connection
    app_security_task.o(.constdata) refers to app_default_handlers.o(.text) for default_app_on_set_dev_config_complete
    app_security_task.o(.constdata) refers to user_sps_device.o(.text) for user_process_catch
    app_entry_point.o(.text) refers to app_entry_point.o(.constdata) for .constdata
    app_entry_point.o(.constdata) refers to user_sps_device.o(.text) for user_process_catch
    app_entry_point.o(.constdata) refers to app_task.o(.text) for app_gap_process_handler
    app_entry_point.o(.constdata) refers to app_easy_timer.o(.text) for app_timer_api_process_handler
    app_entry_point.o(.constdata) refers to app_easy_msg_utils.o(.text) for app_msg_utils_api_process_handler
    app_entry_point.o(.constdata) refers to app_diss_task.o(.text) for app_dis_process_handler
    app_entry_point.o(.constdata) refers to app_bass_task.o(.text) for app_bass_process_handler
    app_entry_point.o(.constdata) refers to app_spotar_task.o(.text) for app_spota_process_handler
    app_msg_utils.o(.text) refers to app_msg_utils.o(.text) for app_check_BLE_active
    app_msg_utils.o(.text) refers to arch_sleep.o(.text) for arch_ble_force_wakeup
    app_easy_msg_utils.o(.text) refers to app_easy_msg_utils.o(.text) for app_easy_msg_find_idx
    app_easy_msg_utils.o(.text) refers to app_easy_msg_utils.o(retention_mem_area0) for retention_mem_area0
    app_easy_msg_utils.o(.text) refers to app_easy_msg_utils.o(retention_mem_area0) for retention_mem_area0
    app_easy_msg_utils.o(.text) refers to app_easy_msg_utils.o(.text) for app_easy_msg_find_idx
    app_easy_msg_utils.o(.text) refers to app_easy_msg_utils.o(retention_mem_area0) for retention_mem_area0
    app_easy_msg_utils.o(.text) refers to app_easy_msg_utils.o(.text) for app_easy_msg_modify
    app_easy_msg_utils.o(.text) refers to app_easy_msg_utils.o(.text) for app_easy_msg_set
    app_easy_msg_utils.o(.text) refers to app_easy_msg_utils.o(retention_mem_area0) for retention_mem_area0
    app_easy_msg_utils.o(.text) refers to app_easy_msg_utils.o(.text) for app_easy_msg_free_callback
    app_easy_msg_utils.o(.text) refers to app_easy_msg_utils.o(retention_mem_area0) for retention_mem_area0
    app_easy_msg_utils.o(.text) refers to app_easy_msg_utils.o(retention_mem_area0) for retention_mem_area0
    app_easy_msg_utils.o(.text) refers to app_easy_msg_utils.o(retention_mem_area0) for retention_mem_area0
    app_easy_security.o(.text) refers to app_easy_security.o(retention_mem_area0) for retention_mem_area0
    app_easy_security.o(.text) refers to app_easy_security.o(.text) for app_easy_security_pairing_rsp_create_msg
    app_easy_security.o(.text) refers to app_easy_security.o(.text) for app_easy_security_pairing_rsp_create_msg
    app_easy_security.o(.text) refers to app_easy_security.o(retention_mem_area0) for retention_mem_area0
    app_easy_security.o(.text) refers to app_easy_security.o(retention_mem_area0) for retention_mem_area0
    app_easy_security.o(.text) refers to app_easy_security.o(.constdata) for .constdata
    app_easy_security.o(.text) refers to app_easy_security.o(.text) for app_easy_security_tk_exch_create_msg
    app_easy_security.o(.text) refers to app_easy_security.o(.text) for app_easy_security_tk_exch_create_msg
    app_easy_security.o(.text) refers to app_easy_security.o(retention_mem_area0) for retention_mem_area0
    app_easy_security.o(.text) refers to app_easy_security.o(retention_mem_area0) for retention_mem_area0
    app_easy_security.o(.text) refers to app_easy_security.o(.constdata) for .constdata
    app_easy_security.o(.text) refers to app_easy_security.o(.text) for app_easy_security_csrk_exch_create_msg
    app_easy_security.o(.text) refers to app_easy_security.o(.text) for app_easy_security_csrk_exch_create_msg
    app_easy_security.o(.text) refers to app_easy_security.o(retention_mem_area0) for retention_mem_area0
    app_easy_security.o(.text) refers to app_easy_security.o(retention_mem_area0) for retention_mem_area0
    app_easy_security.o(.text) refers to app_easy_security.o(.text) for app_easy_security_bond_cfm_ltk_exch_create_msg
    app_easy_security.o(.text) refers to app_easy_security.o(.text) for app_easy_security_bond_cfm_ltk_exch_create_msg
    app_easy_security.o(.text) refers to app_easy_security.o(retention_mem_area0) for retention_mem_area0
    app_easy_security.o(.text) refers to app_easy_security.o(.text) for app_easy_security_bond_cfm_ltk_exch_create_msg
    app_easy_security.o(.text) refers to app_security.o(retention_mem_area0) for app_sec_env
    app_easy_security.o(.text) refers to app_easy_security.o(.text) for app_easy_security_bond_cfm_ltk_exch_create_msg
    app_easy_security.o(.text) refers to app_easy_security.o(retention_mem_area0) for retention_mem_area0
    app_easy_security.o(.text) refers to app_easy_security.o(.text) for app_easy_security_encrypt_cfm_create_msg
    app_easy_security.o(.text) refers to app_easy_security.o(retention_mem_area0) for retention_mem_area0
    app_easy_security.o(.text) refers to app_easy_security.o(.text) for app_easy_security_encrypt_cfm_create_msg
    app_easy_security.o(.text) refers to app_security.o(retention_mem_area0) for app_sec_env
    app_easy_security.o(.text) refers to app_easy_security.o(.text) for app_easy_security_encrypt_cfm_create_msg
    app_easy_security.o(.text) refers to app_security.o(retention_mem_area0) for app_sec_env
    app_easy_security.o(.text) refers to app_easy_security.o(.text) for app_easy_security_encrypt_cfm_create_msg
    app_easy_security.o(.text) refers to app_easy_security.o(retention_mem_area0) for retention_mem_area0
    app_easy_security.o(.text) refers to app_easy_security.o(.text) for app_easy_security_request_get_active
    app_easy_security.o(.text) refers to app_easy_security.o(retention_mem_area0) for retention_mem_area0
    app_easy_timer.o(.text) refers to app_msg_utils.o(.text) for app_check_BLE_active
    app_easy_timer.o(.text) refers to arch_sleep.o(.text) for arch_ble_force_wakeup
    app_easy_timer.o(.text) refers to app_easy_timer.o(retention_mem_area0) for retention_mem_area0
    app_easy_timer.o(.text) refers to app_easy_timer.o(.text) for app_easy_timer_canceled_handler
    app_easy_timer.o(.text) refers to app_easy_timer.o(retention_mem_area0) for retention_mem_area0
    app_easy_timer.o(.text) refers to app_easy_timer.o(.text) for app_easy_timer_cancel
    app_easy_timer.o(.text) refers to app_easy_timer.o(retention_mem_area0) for retention_mem_area0
    app_easy_timer.o(.text) refers to app_easy_timer.o(.text) for app_easy_timer_canceled_handler
    app_easy_timer.o(.text) refers to app_easy_timer.o(retention_mem_area0) for retention_mem_area0
    app_easy_timer.o(.text) refers to app_easy_timer.o(.text) for app_easy_timer_canceled_handler
    app_bass.o(.text) refers to battery.o(.text) for battery_get_lvl
    app_bass.o(.text) refers to app.o(.text) for get_user_prf_srv_perm
    app_bass.o(.text) refers to gpio.o(.text) for GPIO_SetActive
    app_bass.o(.text) refers to app_bass.o(retention_mem_area0) for retention_mem_area0
    app_bass.o(.text) refers to app.o(.text) for app_timer_set
    app_bass.o(.text) refers to app_bass.o(retention_mem_area0) for retention_mem_area0
    app_bass.o(.text) refers to gpio.o(.text) for GPIO_SetInactive
    app_bass.o(.text) refers to app_bass.o(retention_mem_area0) for retention_mem_area0
    app_bass.o(.text) refers to gpio.o(.text) for GPIO_SetInactive
    app_bass.o(.text) refers to app_bass.o(retention_mem_area0) for retention_mem_area0
    app_bass_task.o(.text) refers to app_entry_point.o(.text) for app_std_process_event
    app_bass_task.o(.text) refers to app_bass.o(.text) for app_batt_poll_stop
    app_bass_task.o(.text) refers to app.o(.text) for app_timer_set
    app_bass_task.o(.text) refers to gpio.o(.text) for GPIO_SetInactive
    app_bass_task.o(.text) refers to app_bass_task.o(.constdata) for .constdata
    app_bass_task.o(.text) refers to app_bass.o(retention_mem_area0) for bat_poll_timeout
    app_bass_task.o(.constdata) refers to user_sps_device.o(.text) for on_spotar_status_change
    app_bass_task.o(.constdata) refers to app_bass_task.o(.text) for batt_create_db_cfm_handler
    app_spotar.o(.text) refers to app.o(.text) for get_user_prf_srv_perm
    app_spotar.o(.text) refers to spi.o(.text) for spi_release
    app_spotar.o(.text) refers to user_sps_device.o(.text) for on_spotar_status_change
    app_spotar.o(.text) refers to spi_flash.o(.text) for spi_read_flash_memory_man_and_dev_id
    app_spotar.o(.text) refers to gpio.o(.text) for GPIO_ConfigurePin
    app_spotar.o(.text) refers to app_spotar.o(retention_mem_area0) for retention_mem_area0
    app_spotar.o(.text) refers to app_spotar.o(spotar_patch_area) for spotar_patch_area
    app_spotar.o(.text) refers to spotar.o(retention_mem_area0) for spotar_env
    app_spotar.o(.text) refers to app_spotar.o(spotar_patch_area) for spotar_patch_area
    app_spotar.o(.constdata) refers to user_sps_device.o(.text) for on_spotar_status_change
    app_spotar_task.o(.text) refers to app_entry_point.o(.text) for app_std_process_event
    app_spotar_task.o(.text) refers to app_spotar.o(.text) for app_spotar_pd_hdlr
    app_spotar_task.o(.text) refers to app_spotar_task.o(.constdata) for .constdata
    app_spotar_task.o(.text) refers to app_spotar.o(retention_mem_area0) for spota_state
    app_spotar_task.o(.text) refers to app_spotar.o(spotar_patch_area) for spota_new_pd
    app_spotar_task.o(.constdata) refers to app_spotar_task.o(.text) for spotar_patch_mem_dev_ind_handler
    app_diss.o(.text) refers to app.o(.text) for get_user_prf_srv_perm
    app_diss_task.o(.text) refers to app_entry_point.o(.text) for app_std_process_event
    app_diss_task.o(.text) refers to app_diss_task.o(.constdata) for .constdata
    app_diss_task.o(.constdata) refers to app_diss_task.o(.text) for diss_create_db_cfm_handler
    user_periph_setup.o(.text) refers to ads1292.o(.text) for ADS1292R_RDATA
    user_periph_setup.o(.text) refers to afe4400.o(.text) for AFE4400_RDATA
    user_periph_setup.o(.text) refers to fflti.o(.text) for __aeabi_i2f
    user_periph_setup.o(.text) refers to fadd.o(.text) for __aeabi_fsub
    user_periph_setup.o(.text) refers to f2d.o(.text) for __aeabi_f2d
    user_periph_setup.o(.text) refers to dadd.o(.text) for __aeabi_dadd
    user_periph_setup.o(.text) refers to ddiv.o(.text) for __aeabi_ddiv
    user_periph_setup.o(.text) refers to d2f.o(.text) for __aeabi_d2f
    user_periph_setup.o(.text) refers to ffixi.o(.text) for __aeabi_f2iz
    user_periph_setup.o(.text) refers to dsp.o(.text) for iir_Notch_60Hz_Sample_500Hz
    user_periph_setup.o(.text) refers to user_sps_device.o(.text) for user_send_ble
    user_periph_setup.o(.text) refers to app_easy_timer.o(.text) for app_easy_timer_cancel
    user_periph_setup.o(.text) refers to gpio.o(.text) for GPIO_ConfigurePin
    user_periph_setup.o(.text) refers to arch_sleep.o(.text) for arch_disable_sleep
    user_periph_setup.o(.text) refers to app_bass.o(.text) for app_batt_lvl
    user_periph_setup.o(.text) refers to user_periph_setup.o(.bss) for .bss
    user_periph_setup.o(.text) refers to ecgtohr.o(.constdata) for SAMPLINGTIME
    user_periph_setup.o(.text) refers to user_sps_device.o(.bss) for connected
    user_periph_setup.o(.text) refers to app_bass.o(retention_mem_area0) for cur_batt_level
    user_periph_setup.o(.text) refers to user_periph_setup.o(.data) for .data
    user_periph_setup.o(.text) refers to spi.o(.text) for spi_init
    user_periph_setup.o(.text) refers to ecgtohr.o(.text) for getRRI
    user_periph_setup.o(.text) refers to arch_patch.o(.text) for patch_func
    ads1292.o(.text) refers to gpio.o(.text) for GPIO_SetInactive
    ads1292.o(.text) refers to spi.o(.text) for spi_access
    ads1292.o(.text) refers to ads1292.o(.data) for .data
    ads1292.o(.text) refers to gpio.o(.text) for GPIO_SetInactive
    ads1292.o(.text) refers to spi.o(.text) for spi_access
    afe4400.o(.text) refers to gpio.o(.text) for GPIO_SetInactive
    afe4400.o(.text) refers to spi.o(.text) for spi_access
    afe4400.o(.text) refers to afe4400.o(.constdata) for .constdata
    dsp.o(.text) refers to fdiv.o(.text) for __aeabi_fdiv
    dsp.o(.text) refers to f2d.o(.text) for __aeabi_f2d
    dsp.o(.text) refers to ddiv.o(.text) for __aeabi_ddiv
    dsp.o(.text) refers to d2f.o(.text) for __aeabi_d2f
    dsp.o(.text) refers to fadd.o(.text) for __aeabi_fadd
    dsp.o(.text) refers to fmul.o(.text) for __aeabi_fmul
    dsp.o(.text) refers to fmul.o(.text) for __aeabi_fmul
    dsp.o(.text) refers to fadd.o(.text) for __aeabi_fsub
    dsp.o(.text) refers to dsp.o(.constdata) for .constdata
    dsp.o(.text) refers to dsp.o(.bss) for .bss
    dsp.o(.text) refers to fmul.o(.text) for __aeabi_fmul
    dsp.o(.text) refers to fadd.o(.text) for __aeabi_fsub
    dsp.o(.text) refers to dsp.o(.constdata) for .constdata
    dsp.o(.text) refers to dsp.o(.bss) for .bss
    dsp.o(.text) refers to fmul.o(.text) for __aeabi_fmul
    dsp.o(.text) refers to fadd.o(.text) for __aeabi_fsub
    dsp.o(.text) refers to dsp.o(.constdata) for .constdata
    dsp.o(.text) refers to dsp.o(.bss) for .bss
    dsp.o(.text) refers to fmul.o(.text) for __aeabi_fmul
    dsp.o(.text) refers to fadd.o(.text) for __aeabi_fsub
    dsp.o(.text) refers to dsp.o(.constdata) for .constdata
    dsp.o(.text) refers to dsp.o(.bss) for .bss
    dsp.o(.text) refers to fmul.o(.text) for __aeabi_fmul
    dsp.o(.text) refers to fadd.o(.text) for __aeabi_fsub
    dsp.o(.text) refers to dsp.o(.constdata) for .constdata
    dsp.o(.text) refers to dsp.o(.bss) for .bss
    dsp.o(.text) refers to fmul.o(.text) for __aeabi_fmul
    dsp.o(.text) refers to fadd.o(.text) for __aeabi_fsub
    dsp.o(.text) refers to dsp.o(.constdata) for .constdata
    dsp.o(.text) refers to dsp.o(.bss) for .bss
    dsp.o(.text) refers to fmul.o(.text) for __aeabi_fmul
    dsp.o(.text) refers to fadd.o(.text) for __aeabi_fsub
    dsp.o(.text) refers to dsp.o(.constdata) for .constdata
    dsp.o(.text) refers to dsp.o(.bss) for .bss
    dsp.o(.text) refers to fmul.o(.text) for __aeabi_fmul
    dsp.o(.text) refers to fadd.o(.text) for __aeabi_fsub
    dsp.o(.text) refers to dsp.o(.constdata) for .constdata
    dsp.o(.text) refers to dsp.o(.bss) for .bss
    dsp.o(.text) refers to fmul.o(.text) for __aeabi_fmul
    dsp.o(.text) refers to fadd.o(.text) for __aeabi_fsub
    dsp.o(.text) refers to dsp.o(.constdata) for .constdata
    dsp.o(.text) refers to dsp.o(.bss) for .bss
    dsp.o(.text) refers to fadd.o(.text) for __aeabi_fadd
    dsp.o(.text) refers to fscalb.o(.text) for __ARM_scalbnf
    dsp.o(.text) refers to dsp.o(.bss) for .bss
    ecgtohr.o(.text) refers to cfrcmple.o(.text) for __aeabi_cfrcmple
    ecgtohr.o(.text) refers to fmul.o(.text) for __aeabi_fmul
    ecgtohr.o(.text) refers to fadd.o(.text) for __aeabi_fadd
    ecgtohr.o(.text) refers to fdiv.o(.text) for __aeabi_fdiv
    ecgtohr.o(.text) refers to f2d.o(.text) for __aeabi_f2d
    ecgtohr.o(.text) refers to sqrt.o(i.sqrt) for sqrt
    ecgtohr.o(.text) refers to d2f.o(.text) for __aeabi_d2f
    ecgtohr.o(.text) refers to dadd.o(.text) for __aeabi_dadd
    ecgtohr.o(.text) refers to cdrcmple.o(.text) for __aeabi_cdrcmple
    ecgtohr.o(.text) refers to ecgtohr.o(.bss) for .bss
    ecgtohr.o(.text) refers to fflti.o(.text) for __aeabi_i2f
    ecgtohr.o(.text) refers to ecgtohr.o(.text) for getRRI
    ecgtohr.o(.text) refers to fadd.o(.text) for __aeabi_fsub
    ecgtohr.o(.text) refers to f2d.o(.text) for __aeabi_f2d
    ecgtohr.o(.text) refers to dadd.o(.text) for __aeabi_dadd
    ecgtohr.o(.text) refers to d2f.o(.text) for __aeabi_d2f
    ecgtohr.o(.text) refers to ecgtohr.o(.text) for getRms
    ecgtohr.o(.text) refers to cdrcmple.o(.text) for __aeabi_cdrcmple
    ecgtohr.o(.text) refers to ecgtohr.o(.bss) for .bss
    ecgtohr.o(.text) refers to ecgtohr.o(.bss) for .bss
    sps_server.o(.text) refers to sps_server.o(retention_mem_area0) for retention_mem_area0
    sps_server.o(.text) refers to sps_server.o(.constdata) for .constdata
    sps_server.o(.constdata) refers to sps_server.o(.constdata) for att_decl_svc
    sps_server.o(.constdata) refers to sps_server.o(.constdata) for sps_service
    sps_server.o(.constdata) refers to sps_server.o(.constdata) for att_decl_char
    sps_server.o(.constdata) refers to sps_server.o(.data) for spss_tx_data_char
    sps_server.o(.constdata) refers to sps_server.o(.constdata) for spss_tx_data_val
    sps_server.o(.constdata) refers to sps_server.o(.constdata) for att_decl_cfg
    sps_server.o(.constdata) refers to sps_server.o(.constdata) for att_decl_user_desc
    sps_server.o(.constdata) refers to sps_server.o(.conststring) for .conststring
    sps_server.o(.constdata) refers to sps_server.o(.data) for spss_rx_data_char
    sps_server.o(.constdata) refers to sps_server.o(.constdata) for spss_rx_data_val
    sps_server.o(.constdata) refers to sps_server.o(.data) for spss_flow_ctrl_char
    sps_server.o(.constdata) refers to sps_server.o(.constdata) for spss_flow_ctrl_val
    sps_server.o(.constdata) refers to sps_server_task.o(.constdata) for sps_server_state_handler
    sps_server.o(.constdata) refers to sps_server_task.o(.constdata) for sps_server_default_handler
    sps_server.o(.constdata) refers to sps_server_task.o(.bss) for sps_server_state
    sps_server_task.o(.text) refers to attm_db_128.o(.text) for attm_svc_create_db_128
    sps_server_task.o(.text) refers to prf_utils.o(.text) for prf_server_error_ind_send
    sps_server_task.o(.text) refers to sps_server.o(.text) for sps_server_confirm_data_tx
    sps_server_task.o(.text) refers to sps_server.o(retention_mem_area0) for spss_env
    sps_server_task.o(.text) refers to sps_server.o(.constdata) for sps_att_db
    sps_server_task.o(.constdata) refers to sps_server_task.o(.text) for sps_server_create_db_req_handler
    sps_server_task.o(.constdata) refers to sps_server_task.o(.text) for sps_server_enable_req_handler
    sps_server_task.o(.constdata) refers to sps_server_task.o(.text) for gapc_disconnect_ind_handler
    sps_server_task.o(.constdata) refers to sps_server_task.o(.constdata) for sps_server_disabled
    sps_server_task.o(.constdata) refers to sps_server_task.o(.constdata) for sps_server_idle
    sps_server_task.o(.constdata) refers to sps_server_task.o(.constdata) for sps_server_active
    user_sps_device.o(.text) refers to gpio.o(.text) for GPIO_SetInactive
    user_sps_device.o(.text) refers to app_default_handlers.o(.text) for default_app_on_connection
    user_sps_device.o(.text) refers to app.o(.text) for app_easy_gap_param_update_start
    user_sps_device.o(.text) refers to user_periph_setup.o(.text) for system_off
    user_sps_device.o(.text) refers to spi_flash.o(.text) for spi_flash_enable
    user_sps_device.o(.text) refers to user_periph_setup.o(.bss) for ecgbuff
    user_sps_device.o(.text) refers to user_sps_device.o(.constdata) for .constdata
    user_sps_device.o(.text) refers to user_sps_device.o(.bss) for .bss
    user_sps_device.o(.constdata) refers to user_spss_task.o(.text) for user_spss_process_handler
    user_spss_task.o(.text) refers to app_entry_point.o(.text) for app_std_process_event
    user_spss_task.o(.text) refers to user_periph_setup.o(.text) for system_on
    user_spss_task.o(.text) refers to user_spss_task.o(.constdata) for .constdata
    user_spss_task.o(.text) refers to user_periph_setup.o(.data) for resetcnt
    user_spss_task.o(.constdata) refers to user_spss_task.o(.text) for user_sps_create_db_cfm_handler
    sqrt.o(i.__softfp_sqrt) refers to dsqrt.o(.text) for _dsqrt
    sqrt.o(i.__softfp_sqrt) refers to errno.o(i.__set_errno) for __set_errno
    sqrt.o(i.sqrt) refers to dsqrt.o(.text) for _dsqrt
    sqrt.o(i.sqrt) refers to errno.o(i.__set_errno) for __set_errno
    sqrt_x.o(i.____softfp_sqrt$lsc) refers to errno.o(i.__set_errno) for __set_errno
    sqrt_x.o(i.____softfp_sqrt$lsc) refers to dsqrt.o(.text) for _dsqrt
    sqrt_x.o(i.__sqrt$lsc) refers to errno.o(i.__set_errno) for __set_errno
    sqrt_x.o(i.__sqrt$lsc) refers to dsqrt.o(.text) for _dsqrt
    entry.o(.ARM.Collect$$$$00000000) refers (Special) to entry10a.o(.ARM.Collect$$$$0000000D) for __rt_final_cpp
    entry.o(.ARM.Collect$$$$00000000) refers (Special) to entry11a.o(.ARM.Collect$$$$0000000F) for __rt_final_exit
    entry.o(.ARM.Collect$$$$00000000) refers (Special) to entry7b.o(.ARM.Collect$$$$00000008) for _main_clock
    entry.o(.ARM.Collect$$$$00000000) refers (Special) to entry8b.o(.ARM.Collect$$$$0000000A) for _main_cpp_init
    entry.o(.ARM.Collect$$$$00000000) refers (Special) to entry9a.o(.ARM.Collect$$$$0000000B) for _main_init
    entry.o(.ARM.Collect$$$$00000000) refers (Special) to entry5.o(.ARM.Collect$$$$00000004) for _main_scatterload
    entry.o(.ARM.Collect$$$$00000000) refers (Special) to entry2.o(.ARM.Collect$$$$00000001) for _main_stk
    malloc.o(i.free) refers to mvars.o(.data) for __microlib_freelist
    malloc.o(i.malloc) refers to mvars.o(.data) for __microlib_freelist_initialised
    malloc.o(i.malloc) refers to mvars.o(.data) for __microlib_freelist
    malloc.o(i.malloc) refers to boot_vectors.o(HEAP) for __heap_base
    mallocr.o(i.__free$realloc) refers to mvars.o(.data) for __microlib_freelist
    mallocr.o(i.__malloc$realloc) refers to mallocr.o(i.internal_alloc) for internal_alloc
    mallocr.o(i.__malloc$realloc) refers to mvars.o(.data) for __microlib_freelist_initialised
    mallocr.o(i.__malloc$realloc) refers to boot_vectors.o(HEAP) for __heap_base
    mallocr.o(i.__malloc$realloc) refers to mvars.o(.data) for __microlib_freelist
    mallocr.o(i.internal_alloc) refers to mvars.o(.data) for __microlib_freelist
    mallocr.o(i.realloc) refers to mallocr.o(i.__free$realloc) for __free$realloc
    mallocr.o(i.realloc) refers to mallocr.o(i.internal_alloc) for internal_alloc
    mallocr.o(i.realloc) refers to mallocr.o(i.__malloc$realloc) for __malloc$realloc
    mallocr.o(i.realloc) refers to mvars.o(.data) for __microlib_freelist
    malloca.o(i.__aligned_malloc) refers to mvars.o(.data) for __microlib_freelist
    malloca.o(i.__aligned_malloc) refers to mvars.o(.data) for __microlib_freelist_initialised
    malloca.o(i.__aligned_malloc) refers to boot_vectors.o(HEAP) for __heap_base
    malloca.o(i.__free$memalign) refers to mvars.o(.data) for __microlib_freelist
    malloca.o(i.__malloc$memalign) refers to malloca.o(i.__aligned_malloc) for __aligned_malloc
    mallocra.o(i.__aligned_malloc$realloc) refers to mallocra.o(i.internal_alloc) for internal_alloc
    mallocra.o(i.__aligned_malloc$realloc) refers to boot_vectors.o(HEAP) for __heap_base
    mallocra.o(i.__aligned_malloc$realloc) refers to mvars.o(.data) for __microlib_freelist
    mallocra.o(i.__aligned_malloc$realloc) refers to mvars.o(.data) for __microlib_freelist_initialised
    mallocra.o(i.__free$realloc$memalign) refers to mvars.o(.data) for __microlib_freelist
    mallocra.o(i.__malloc$realloc$memalign) refers to mallocra.o(i.__aligned_malloc$realloc) for __aligned_malloc$realloc
    mallocra.o(i.__realloc$memalign) refers to mallocra.o(i.__free$realloc$memalign) for __free$realloc$memalign
    mallocra.o(i.__realloc$memalign) refers to mallocra.o(i.internal_alloc) for internal_alloc
    mallocra.o(i.__realloc$memalign) refers to mallocra.o(i.__malloc$realloc$memalign) for __malloc$realloc$memalign
    mallocra.o(i.__realloc$memalign) refers to mvars.o(.data) for __microlib_freelist
    mallocra.o(i.internal_alloc) refers to mvars.o(.data) for __microlib_freelist
    fadd.o(.text) refers to fepilogue.o(.text) for _float_epilogue
    fdiv.o(.text) refers to fepilogue.o(.text) for _float_round
    dadd.o(.text) refers to llsshr.o(.text) for __aeabi_lasr
    fflti.o(.text) refers to fepilogue.o(.text) for _float_epilogue
    d2f.o(.text) refers to fepilogue.o(.text) for _float_round
    entry2.o(.ARM.Collect$$$$00000001) refers to entry2.o(.ARM.Collect$$$$00002712) for __lit__00000000
    entry2.o(.ARM.Collect$$$$00002712) refers to boot_vectors.o(STACK) for __initial_sp
    entry2.o(__vectab_stack_and_reset_area) refers to boot_vectors.o(STACK) for __initial_sp
    entry2.o(__vectab_stack_and_reset_area) refers to entry.o(.ARM.Collect$$$$00000000) for __main
    entry5.o(.ARM.Collect$$$$00000004) refers to init.o(.text) for __scatterload
    errno.o(i.__aeabi_errno_addr) refers to errno.o(.data) for .data
    errno.o(i.__read_errno) refers to errno.o(.data) for .data
    errno.o(i.__set_errno) refers to errno.o(.data) for .data
    init.o(.text) refers to entry5.o(.ARM.Collect$$$$00000004) for __main_after_scatterload


==============================================================================

Removing Unused input sections from the image.

    Removing arch_main.o(.constdata), (28 bytes).
    Removing arch_sleep.o(.text), (80 bytes).
    Removing arch_sleep.o(.text), (36 bytes).
    Removing arch_sleep.o(.text), (12 bytes).
    Removing arch_sleep.o(.text), (12 bytes).
    Removing arch_sleep.o(.text), (12 bytes).
    Removing arch_system.o(.text), (2 bytes).
    Removing arch_system.o(.text), (2 bytes).
    Removing arch_system.o(.text), (12 bytes).
    Removing arch_system.o(.text), (2 bytes).
    Removing arch_system.o(.text), (8 bytes).
    Removing arch_system.o(.text), (8 bytes).
    Removing arch_system.o(.text), (12 bytes).
    Removing arch_system.o(.text), (88 bytes).
    Removing arch_system.o(.constdata), (28 bytes).
    Removing arch_system.o(retention_mem_area0), (4 bytes).
    Removing arch_system.o(retention_mem_area0), (4 bytes).
    Removing arch_system.o(retention_mem_area0), (4 bytes).
    Removing arch_system.o(retention_mem_area0), (4 bytes).
    Removing arch_patch.o(retention_mem_area0), (32 bytes).
    Removing syscntl.o(.text), (24 bytes).
    Removing gpio.o(.text), (48 bytes).
    Removing gpio.o(.text), (144 bytes).
    Removing gpio.o(.text), (36 bytes).
    Removing battery.o(.text), (124 bytes).
    Removing battery.o(retention_mem_area0), (8 bytes).
    Removing adc.o(.text), (12 bytes).
    Removing systick.o(.text), (12 bytes).
    Removing systick.o(.text), (64 bytes).
    Removing systick.o(.text), (24 bytes).
    Removing systick.o(.text), (28 bytes).
    Removing systick.o(.text), (16 bytes).
    Removing spi.o(.text), (16 bytes).
    Removing wkupct_quadec.o(.text), (68 bytes).
    Removing wkupct_quadec.o(.text), (36 bytes).
    Removing wkupct_quadec.o(.text), (148 bytes).
    Removing wkupct_quadec.o(.text), (40 bytes).
    Removing wkupct_quadec.o(.text), (12 bytes).
    Removing wkupct_quadec.o(.text), (12 bytes).
    Removing wkupct_quadec.o(.text), (40 bytes).
    Removing wkupct_quadec.o(.text), (44 bytes).
    Removing wkupct_quadec.o(.text), (32 bytes).
    Removing wkupct_quadec.o(.text), (80 bytes).
    Removing wkupct_quadec.o(.text), (2 bytes).
    Removing spi_flash.o(.text), (64 bytes).
    Removing spi_flash.o(.text), (56 bytes).
    Removing spi_flash.o(.text), (32 bytes).
    Removing spi_flash.o(.text), (36 bytes).
    Removing spi_flash.o(.text), (70 bytes).
    Removing spi_flash.o(.text), (56 bytes).
    Removing spi_flash.o(.text), (32 bytes).
    Removing spi_flash.o(.text), (92 bytes).
    Removing spi_flash.o(.text), (112 bytes).
    Removing rf_580.o(.text), (12 bytes).
    Removing rf_580.o(.text), (24 bytes).
    Removing rf_580.o(.text), (28 bytes).
    Removing rwble.o(.bss), (1 bytes).
    Removing rwble.o(.bss), (4 bytes).
    Removing rwip.o(retention_mem_area0), (4 bytes).
    Removing rwip.o(retention_mem_area0), (4 bytes).
    Removing prf_utils.o(.text), (32 bytes).
    Removing prf_utils.o(.text), (34 bytes).
    Removing spotar.o(.text), (48 bytes).
    Removing spotar.o(.constdata), (29 bytes).
    Removing spotar.o(.constdata), (39 bytes).
    Removing spotar.o(.constdata), (48 bytes).
    Removing spotar.o(.constdata), (21 bytes).
    Removing spotar.o(.constdata), (23 bytes).
    Removing spotar.o(.constdata), (26 bytes).
    Removing app_default_handlers.o(.text), (8 bytes).
    Removing app_default_handlers.o(.text), (28 bytes).
    Removing app_default_handlers.o(.text), (8 bytes).
    Removing app_default_handlers.o(.text), (24 bytes).
    Removing app_default_handlers.o(.text), (72 bytes).
    Removing app_default_handlers.o(.constdata), (6 bytes).
    Removing app_default_handlers.o(.constdata), (4 bytes).
    Removing app.o(.text), (176 bytes).
    Removing app.o(.text), (76 bytes).
    Removing app.o(.text), (84 bytes).
    Removing app.o(.text), (28 bytes).
    Removing app.o(.text), (28 bytes).
    Removing app.o(.text), (28 bytes).
    Removing app.o(.text), (52 bytes).
    Removing app.o(.text), (52 bytes).
    Removing app.o(.text), (8 bytes).
    Removing app.o(.text), (8 bytes).
    Removing app.o(.text), (32 bytes).
    Removing app.o(.text), (8 bytes).
    Removing app.o(.text), (32 bytes).
    Removing app.o(.text), (48 bytes).
    Removing app.o(.text), (28 bytes).
    Removing app.o(.text), (8 bytes).
    Removing app.o(.text), (8 bytes).
    Removing app.o(.text), (40 bytes).
    Removing app.o(.text), (24 bytes).
    Removing app.o(.text), (8 bytes).
    Removing app.o(.text), (40 bytes).
    Removing app.o(.constdata), (12 bytes).
    Removing app.o(.constdata), (82 bytes).
    Removing app_task.o(.constdata), (80 bytes).
    Removing app_security.o(.text), (28 bytes).
    Removing app_security.o(.text), (84 bytes).
    Removing app_security.o(retention_mem_area0), (36 bytes).
    Removing app_security_task.o(.text), (4 bytes).
    Removing app_security_task.o(.text), (100 bytes).
    Removing app_security_task.o(.text), (4 bytes).
    Removing app_security_task.o(.text), (4 bytes).
    Removing app_security_task.o(.constdata), (80 bytes).
    Removing app_security_task.o(.constdata), (4 bytes).
    Removing app_msg_utils.o(.text), (24 bytes).
    Removing app_easy_msg_utils.o(.text), (32 bytes).
    Removing app_easy_msg_utils.o(.text), (52 bytes).
    Removing app_easy_msg_utils.o(.text), (36 bytes).
    Removing app_easy_msg_utils.o(.text), (32 bytes).
    Removing app_easy_msg_utils.o(.text), (20 bytes).
    Removing app_easy_msg_utils.o(.text), (24 bytes).
    Removing app_easy_security.o(.text), (68 bytes).
    Removing app_easy_security.o(.text), (8 bytes).
    Removing app_easy_security.o(.text), (28 bytes).
    Removing app_easy_security.o(.text), (64 bytes).
    Removing app_easy_security.o(.text), (48 bytes).
    Removing app_easy_security.o(.text), (8 bytes).
    Removing app_easy_security.o(.text), (28 bytes).
    Removing app_easy_security.o(.text), (64 bytes).
    Removing app_easy_security.o(.text), (8 bytes).
    Removing app_easy_security.o(.text), (28 bytes).
    Removing app_easy_security.o(.text), (52 bytes).
    Removing app_easy_security.o(.text), (8 bytes).
    Removing app_easy_security.o(.text), (28 bytes).
    Removing app_easy_security.o(.text), (56 bytes).
    Removing app_easy_security.o(.text), (44 bytes).
    Removing app_easy_security.o(.text), (44 bytes).
    Removing app_easy_security.o(.text), (28 bytes).
    Removing app_easy_security.o(.text), (8 bytes).
    Removing app_easy_security.o(.text), (56 bytes).
    Removing app_easy_security.o(.text), (40 bytes).
    Removing app_easy_security.o(.text), (12 bytes).
    Removing app_easy_security.o(.text), (52 bytes).
    Removing app_easy_security.o(.text), (28 bytes).
    Removing app_easy_security.o(.constdata), (39 bytes).
    Removing app_easy_security.o(.constdata), (7 bytes).
    Removing app_easy_security.o(.constdata), (16 bytes).
    Removing app_easy_security.o(.constdata), (16 bytes).
    Removing app_easy_security.o(retention_mem_area0), (24 bytes).
    Removing app_easy_timer.o(.text), (28 bytes).
    Removing app_easy_timer.o(.text), (44 bytes).
    Removing app_easy_timer.o(.text), (76 bytes).
    Removing app_bass.o(.text), (28 bytes).
    Removing app_bass.o(.text), (44 bytes).
    Removing app_bass.o(.text), (36 bytes).
    Removing app_bass_task.o(.constdata), (20 bytes).
    Removing app_spotar.o(.text), (48 bytes).
    Removing app_spotar.o(.constdata), (20 bytes).
    Removing user_periph_setup.o(.bss), (4 bytes).
    Removing user_periph_setup.o(.bss), (4 bytes).
    Removing user_periph_setup.o(.bss), (4 bytes).
    Removing user_periph_setup.o(.bss), (4 bytes).
    Removing user_periph_setup.o(.bss), (4 bytes).
    Removing user_periph_setup.o(.bss), (4 bytes).
    Removing user_periph_setup.o(.data), (4 bytes).
    Removing ads1292.o(.text), (48 bytes).
    Removing dsp.o(.text), (152 bytes).
    Removing dsp.o(.text), (144 bytes).
    Removing dsp.o(.text), (148 bytes).
    Removing dsp.o(.text), (132 bytes).
    Removing dsp.o(.text), (132 bytes).
    Removing dsp.o(.text), (132 bytes).
    Removing dsp.o(.text), (132 bytes).
    Removing dsp.o(.text), (132 bytes).
    Removing dsp.o(.text), (132 bytes).
    Removing dsp.o(.text), (68 bytes).
    Removing ecgtohr.o(.text), (28 bytes).
    Removing ecgtohr.o(.text), (356 bytes).
    Removing ecgtohr.o(.text), (12 bytes).
    Removing ecgtohr.o(.constdata), (4 bytes).
    Removing ecgtohr.o(.constdata), (4 bytes).
    Removing ecgtohr.o(.constdata), (4 bytes).
    Removing ecgtohr.o(.constdata), (4 bytes).
    Removing user_sps_device.o(.text), (4 bytes).
    Removing user_sps_device.o(.text), (2 bytes).
    Removing user_spss.o(.text), (48 bytes).
    Removing user_spss.o(.text), (28 bytes).
    Removing fscalb.o(.text), (24 bytes).
    Removing arch_patch.o(i.__ARM_common_switch8), (26 bytes).
    Removing wkupct_quadec.o(i.quad_decoder_get_z_counter), (12 bytes).
    Removing wkupct_quadec.o(i.quad_decoder_get_y_counter), (12 bytes).
    Removing wkupct_quadec.o(i.quad_decoder_get_x_counter), (12 bytes).

187 unused section(s) (total 7305 bytes) removed from the image.

==============================================================================

Adding Veneers to the image

    Adding TT veneer (12 bytes, Long) for call to 'memcmp' from nvds.o(.text).
    Adding TT veneer (12 bytes, Long) for call to '__aeabi_memcpy' from nvds.o(.text).
    Adding TT veneer (12 bytes, Long) for call to 'nvds_get_func' from nvds.o(.text).
    Adding TT veneer (12 bytes, Long) for call to '__aeabi_memclr4' from nvds.o(.text).
    Adding TT veneer (12 bytes, Long) for call to 'lld_sleep_check' from arch_main.o(.text).
    Adding TT veneer (12 bytes, Long) for call to 'rwip_prevent_sleep_get' from arch_main.o(.text).
    Adding TT veneer (12 bytes, Long) for call to 'ke_event_get' from arch_main.o(.text).
    Adding TT veneer (12 bytes, Long) for call to 'rwip_schedule' from arch_main.o(.text).
    Adding TT veneer (12 bytes, Long) for call to 'func_check_mem' from arch_main.o(.text).
    Adding TT veneer (12 bytes, Long) for call to 'test_rxdone' from arch_main.o(.text).
    Adding TT veneer (12 bytes, Long) for call to 'ke_mem_is_empty' from arch_main.o(.text).
    Adding TT veneer (12 bytes, Long) for call to 'rwip_wakeup_delay_set' from arch_system.o(.text).
    Adding TT veneer (12 bytes, Long) for call to '$Super$$get_rc16m_count_func' from arch_system.o(.text).
    Adding TT veneer (12 bytes, Long) for call to 'get_rc16m_count' from arch_system.o(.text).
    Adding TT veneer (12 bytes, Long) for call to 'pll_vcocal_LUT_InitUpdate' from arch_system.o(.text).
    Adding TT veneer (12 bytes, Long) for call to 'rf_calibration' from arch_system.o(.text).
    Adding TT veneer (12 bytes, Long) for call to 'lld_sleep_us_2_lpcycles_func' from arch_system.o(.text).
    Adding TT veneer (12 bytes, Long) for call to 'lld_sleep_lpcycles_2_us_func' from arch_system.o(.text).
    Adding TT veneer (12 bytes, Long) for call to 'uart_flow_on' from arch_system.o(.text).
    Adding TT veneer (12 bytes, Long) for call to 'srand' from arch_system.o(.text).
    Adding TT veneer (12 bytes, Long) for call to 'set_system_clocks' from arch_system.o(.text).
    Adding TT veneer (12 bytes, Long) for call to 'nvds_init' from arch_system.o(.text).
    Adding TT veneer (12 bytes, Long) for call to 'rwip_init' from arch_system.o(.text).
    Adding TT veneer (12 bytes, Long) for call to 'enable_rf_diag_irq' from arch_system.o(.text).
    Adding TT veneer (12 bytes, Long) for call to 'platform_reset_func' from arch_system.o(.text).
    Adding TT veneer (12 bytes, Long) for call to 'ke_state_get' from arch_patch.o(.text).
    Adding TT veneer (12 bytes, Long) for call to '__ARM_common_switch8' from arch_patch.o(.text).
    Adding TT veneer (12 bytes, Long) for call to 'TASK_LLM_lld_data_ind_handler' from arch_patch.o(.text).
    Adding TT veneer (12 bytes, Long) for call to 'co_buf_rx_free' from arch_patch.o(.text).
    Adding TT veneer (12 bytes, Long) for call to 'ke_timer_clear' from atts_task.obj(.text).
    Adding TT veneer (12 bytes, Long) for call to 'atts_send_cmd_cmp' from atts_task.obj(.text).
    Adding TT veneer (12 bytes, Long) for call to 'ke_state_set' from atts_task.obj(.text).
    Adding TT veneer (12 bytes, Long) for call to 'atts_mtu_exc_resp' from atts_task.obj(.text).
    Adding TT veneer (12 bytes, Long) for call to 'atts_find_info_resp' from atts_task.obj(.text).
    Adding TT veneer (12 bytes, Long) for call to 'atts_find_by_type_resp' from atts_task.obj(.text).
    Adding TT veneer (12 bytes, Long) for call to 'atts_read_by_type_resp' from atts_task.obj(.text).
    Adding TT veneer (12 bytes, Long) for call to 'atts_read_by_grp_type_resp' from atts_task.obj(.text).
    Adding TT veneer (12 bytes, Long) for call to 'atts_read_resp' from atts_task.obj(.text).
    Adding TT veneer (12 bytes, Long) for call to 'atts_read_blob_resp' from atts_task.obj(.text).
    Adding TT veneer (12 bytes, Long) for call to 'atts_read_mult_resp' from atts_task.obj(.text).
    Adding TT veneer (12 bytes, Long) for call to 'atts_write_no_resp' from atts_task.obj(.text).
    Adding TT veneer (12 bytes, Long) for call to 'atts_write_resp' from atts_task.obj(.text).
    Adding TT veneer (12 bytes, Long) for call to 'atts_signed_write_resp' from atts_task.obj(.text).
    Adding TT veneer (12 bytes, Long) for call to 'atts_prepare_write_resp' from atts_task.obj(.text).
    Adding TT veneer (12 bytes, Long) for call to 'atts_execute_write_resp' from atts_task.obj(.text).
    Adding TT veneer (12 bytes, Long) for call to 'lld_con_update_ind' from ch_map.obj(.text).
    Adding TT veneer (12 bytes, Long) for call to '__aeabi_uidivmod' from ch_map.obj(.text).
    Adding TT veneer (12 bytes, Long) for call to 'llc_util_dicon_procedure' from ch_map.obj(.text).
    Adding TT veneer (12 bytes, Long) for call to 'lld_ch_map_ind' from ch_map.obj(.text).
    Adding TT veneer (12 bytes, Long) for call to 'gapm_get_privacy_flag' from gapm_util.obj(.text).
    Adding TT veneer (12 bytes, Long) for call to 'gapm_set_recon_addr' from gapm_util.obj(.text).
    Adding TT veneer (12 bytes, Long) for call to 'co_list_pop_front' from ke_task.obj(.text).
    Adding TT veneer (12 bytes, Long) for call to 'ke_task_handler_get' from ke_task.obj(.text).
    Adding TT veneer (12 bytes, Long) for call to 'ke_msg_free' from ke_task.obj(.text).
    Adding TT veneer (12 bytes, Long) for call to 'co_list_push_back' from ke_task.obj(.text).
    Adding TT veneer (12 bytes, Long) for call to 'ke_event_clear' from ke_task.obj(.text).
    Adding TT veneer (12 bytes, Long) for call to 'ke_event_callback_set' from ke_task.obj(.text).
    Adding TT veneer (12 bytes, Long) for call to 'ke_msg_alloc' from smpc.obj(.text).
    Adding TT veneer (12 bytes, Long) for call to 'gapc_get_enc_keysize' from smpc.obj(.text).
    Adding TT veneer (12 bytes, Long) for call to 'gapc_get_role' from smpc.obj(.text).
    Adding TT veneer (12 bytes, Long) for call to 'ke_msg_send' from smpc.obj(.text).
    Adding TT veneer (12 bytes, Long) for call to 'smpc_generate_rand' from smpc_task.obj(.text).
    Adding TT veneer (12 bytes, Long) for call to 'smpc_tkdp_send_continue' from smpc_task.obj(.text).
    Adding TT veneer (12 bytes, Long) for call to 'smpc_pdu_send' from smpc_task.obj(.text).
    Adding TT veneer (12 bytes, Long) for call to 'smpc_tkdp_rcp_start' from smpc_task.obj(.text).
    Adding TT veneer (12 bytes, Long) for call to 'smpc_pairing_end' from smpc_task.obj(.text).
    Adding TT veneer (12 bytes, Long) for call to 'smpc_check_max_key_size' from smpc_task.obj(.text).
    Adding TT veneer (12 bytes, Long) for call to 'smpc_check_key_distrib' from smpc_task.obj(.text).
    Adding TT veneer (12 bytes, Long) for call to 'smpc_get_key_sec_prop' from smpc_task.obj(.text).
    Adding TT veneer (12 bytes, Long) for call to 'smpc_is_sec_mode_reached' from smpc_task.obj(.text).
    Adding TT veneer (12 bytes, Long) for call to 'llc_le_con_update_cmd_handler' from llc.obj(.text).
    Adding TT veneer (12 bytes, Long) for call to 'llm_util_get_role' from llc.obj(.text).
    Adding TT veneer (12 bytes, Long) for call to 'lld_evt_int_extract' from llc.obj(.text).
    Adding TT veneer (12 bytes, Long) for call to 'ke_free' from llc.obj(.text).
    Adding TT veneer (12 bytes, Long) for call to 'lld_stop_ind_handler' from llc.obj(.text).
    Adding TT veneer (12 bytes, Long) for call to 'ke_timer_set' from llc.obj(.text).
    Adding TT veneer (12 bytes, Long) for call to 'llc_start_enc_rsp_pdu_send' from llc.obj(.text).
    Adding TT veneer (12 bytes, Long) for call to 'llc_common_enc_change_evt_send' from llc.obj(.text).
    Adding TT veneer (12 bytes, Long) for call to '__aeabi_idivmod' from battery.o(.text).
    Adding TT veneer (12 bytes, Long) for call to 'IffCalibration' from trng.o(.text).
    Adding TT veneer (12 bytes, Long) for call to 'DCoffsetCalibration' from trng.o(.text).
    Adding TT veneer (12 bytes, Long) for call to 'ble_regs_pop' from rwble.o(.text).
    Adding TT veneer (12 bytes, Long) for call to 'rwip_wakeup' from rwble.o(.text).
    Adding TT veneer (12 bytes, Long) for call to 'rf_workaround_init' from rwble.o(.text).
    Adding TT veneer (12 bytes, Long) for call to 'rf_reinit' from rwble.o(.text).
    Adding TT veneer (12 bytes, Long) for call to '$Super$$BLE_CSCNT_Handler' from rwble.o(.text).
    Adding TT veneer (12 bytes, Long) for call to 'lld_evt_rx_isr' from rwble.o(.text).
    Adding TT veneer (12 bytes, Long) for call to 'lld_evt_end_isr' from rwble.o(.text).
    Adding TT veneer (12 bytes, Long) for call to 'set_rf_cal_cap' from rwble.o(.text).
    Adding TT veneer (12 bytes, Long) for call to 'set_gauss_modgain' from rwble.o(.text).
    Adding TT veneer (12 bytes, Long) for call to 'lld_evt_start_isr' from rwble.o(.text).
    Adding TT veneer (12 bytes, Long) for call to 'ke_sleep_check' from rwip.o(.text).
    Adding TT veneer (12 bytes, Long) for call to 'ke_timer_sleep_check' from rwip.o(.text).
    Adding TT veneer (12 bytes, Long) for call to 'lld_sleep_enter' from rwip.o(.text).
    Adding TT veneer (12 bytes, Long) for call to 'ble_regs_push' from rwip.o(.text).
    Adding TT veneer (12 bytes, Long) for call to 'attmdb_add_service' from attm_db_128.o(.text).
    Adding TT veneer (12 bytes, Long) for call to 'attmdb_add_attribute' from attm_db_128.o(.text).
    Adding TT veneer (12 bytes, Long) for call to 'attmdb_att_set_value' from attm_db_128.o(.text).
    Adding TT veneer (12 bytes, Long) for call to 'attmdb_att_partial_value_update' from attm_db_128.o(.text).
    Adding TT veneer (12 bytes, Long) for call to 'gapc_get_conhdl' from prf_utils.o(.text).
    Adding TT veneer (12 bytes, Long) for call to 'gapc_send_disconect_ind' from prf_utils.o(.text).
    Adding TT veneer (12 bytes, Long) for call to '__aeabi_memclr' from bass.o(.text).
    Adding TT veneer (12 bytes, Long) for call to 'ke_task_create' from bass.o(.text).
    Adding TT veneer (12 bytes, Long) for call to 'attmdb_att_get_value' from bass.o(.text).
    Adding TT veneer (12 bytes, Long) for call to 'attm_svc_create_db' from bass_task.o(.text).
    Adding TT veneer (12 bytes, Long) for call to 'attmdb_svc_set_permission' from bass_task.o(.text).
    Adding TT veneer (12 bytes, Long) for call to 'attmdb_att_set_permission' from bass_task.o(.text).
    Adding TT veneer (12 bytes, Long) for call to 'gapc_get_conidx' from bass_task.o(.text).
    Adding TT veneer (12 bytes, Long) for call to 'atts_write_rsp_send' from bass_task.o(.text).
    Adding TT veneer (12 bytes, Long) for call to 'nvds_get' from app.o(.text).
    Adding TT veneer (12 bytes, Long) for call to 'platform_reset' from app_task.o(.text).
    Adding TT veneer (12 bytes, Long) for call to 'get_patching_spota_length' from app_spotar.o(.text).
    Adding TT veneer (12 bytes, Long) for call to '__aeabi_memset' from app_spotar.o(.text).
    Adding TT veneer (12 bytes, Long) for call to '__aeabi_dmul' from user_periph_setup.o(.text).
    Adding TT veneer (12 bytes, Long) for call to '__aeabi_memcpy4' from dsp.o(.text).
    Adding TT veneer (12 bytes, Long) for call to '__aeabi_llsl' from dadd.o(.text).
    Adding TT veneer (12 bytes, Long) for call to '_double_epilogue' from dadd.o(.text).
    Adding TT veneer (12 bytes, Long) for call to '_double_round' from dadd.o(.text).
    Adding TT veneer (12 bytes, Long) for call to '__aeabi_llsr' from dsqrt.o(.text).

119 Veneer(s) (total 1428 bytes) added to the image.

==============================================================================

Image Symbol Table

    Local Symbols

    Symbol Name                              Value     Ov Type        Size  Object(Section)

    ../clib/microlib/errno.c                 0x00000000   Number         0  errno.o ABSOLUTE
    ../clib/microlib/init/entry.s            0x00000000   Number         0  entry7a.o ABSOLUTE
    ../clib/microlib/init/entry.s            0x00000000   Number         0  entry5.o ABSOLUTE
    ../clib/microlib/init/entry.s            0x00000000   Number         0  entry2.o ABSOLUTE
    ../clib/microlib/init/entry.s            0x00000000   Number         0  entry7b.o ABSOLUTE
    ../clib/microlib/init/entry.s            0x00000000   Number         0  entry8a.o ABSOLUTE
    ../clib/microlib/init/entry.s            0x00000000   Number         0  entry8b.o ABSOLUTE
    ../clib/microlib/init/entry.s            0x00000000   Number         0  entry9a.o ABSOLUTE
    ../clib/microlib/init/entry.s            0x00000000   Number         0  entry.o ABSOLUTE
    ../clib/microlib/init/entry.s            0x00000000   Number         0  entry9b.o ABSOLUTE
    ../clib/microlib/init/entry.s            0x00000000   Number         0  entry10a.o ABSOLUTE
    ../clib/microlib/init/entry.s            0x00000000   Number         0  entry10b.o ABSOLUTE
    ../clib/microlib/init/entry.s            0x00000000   Number         0  entry11a.o ABSOLUTE
    ../clib/microlib/init/entry.s            0x00000000   Number         0  entry11b.o ABSOLUTE
    ../clib/microlib/longlong.c              0x00000000   Number         0  llsshr.o ABSOLUTE
    ../clib/microlib/malloc/malloc.c         0x00000000   Number         0  malloca.o ABSOLUTE
    ../clib/microlib/malloc/malloc.c         0x00000000   Number         0  malloc.o ABSOLUTE
    ../clib/microlib/malloc/malloc.c         0x00000000   Number         0  mallocra.o ABSOLUTE
    ../clib/microlib/malloc/malloc.c         0x00000000   Number         0  mallocr.o ABSOLUTE
    ../clib/microlib/malloc/mvars.c          0x00000000   Number         0  mvars.o ABSOLUTE
    ../fplib/microlib/d2f.c                  0x00000000   Number         0  d2f.o ABSOLUTE
    ../fplib/microlib/f2d.c                  0x00000000   Number         0  f2d.o ABSOLUTE
    ../fplib/microlib/fpadd.c                0x00000000   Number         0  dadd.o ABSOLUTE
    ../fplib/microlib/fpadd.c                0x00000000   Number         0  fadd.o ABSOLUTE
    ../fplib/microlib/fpdiv.c                0x00000000   Number         0  ddiv.o ABSOLUTE
    ../fplib/microlib/fpdiv.c                0x00000000   Number         0  fdiv.o ABSOLUTE
    ../fplib/microlib/fpepilogue.c           0x00000000   Number         0  fepilogue.o ABSOLUTE
    ../fplib/microlib/fpfix.c                0x00000000   Number         0  ffixi.o ABSOLUTE
    ../fplib/microlib/fpflt.c                0x00000000   Number         0  fflti.o ABSOLUTE
    ../fplib/microlib/fpmul.c                0x00000000   Number         0  fmul.o ABSOLUTE
    ../fplib/microlib/fpscalb.c              0x00000000   Number         0  fscalb.o ABSOLUTE
    ../fplib/microlib/fpsqrt.c               0x00000000   Number         0  dsqrt.o ABSOLUTE
    ../mathlib/sqrt.c                        0x00000000   Number         0  sqrt.o ABSOLUTE
    ../mathlib/sqrt.c                        0x00000000   Number         0  sqrt_x.o ABSOLUTE
    ..\..\..\..\..\..\..\..\clean\kbd_ref\dk_apps\patch_code\src\ch_map.c 0x00000000   Number         0  ch_map.obj ABSOLUTE
    ..\..\..\..\..\..\..\..\clean\kbd_ref\dk_apps\patch_code\src\gapm_util.c 0x00000000   Number         0  gapm_util.obj ABSOLUTE
    ..\..\..\..\..\sdk\platform\patch_code\DA14580\src\smpc.c 0x00000000   Number         0  smpc.obj ABSOLUTE
    ..\..\..\..\..\sdk\platform\patch_code\DA14580\src\smpc_task.c 0x00000000   Number         0  smpc_task.obj ABSOLUTE
    ..\..\..\..\..\sdk_580\sdk\app_modules\src\app_bass\app_bass.c 0x00000000   Number         0  app_bass.o ABSOLUTE
    ..\..\..\..\..\sdk_580\sdk\app_modules\src\app_bass\app_bass_task.c 0x00000000   Number         0  app_bass_task.o ABSOLUTE
    ..\..\..\..\..\sdk_580\sdk\app_modules\src\app_common\app.c 0x00000000   Number         0  app.o ABSOLUTE
    ..\..\..\..\..\sdk_580\sdk\app_modules\src\app_common\app_msg_utils.c 0x00000000   Number         0  app_msg_utils.o ABSOLUTE
    ..\..\..\..\..\sdk_580\sdk\app_modules\src\app_common\app_task.c 0x00000000   Number         0  app_task.o ABSOLUTE
    ..\..\..\..\..\sdk_580\sdk\app_modules\src\app_default_hnd\app_default_handlers.c 0x00000000   Number         0  app_default_handlers.o ABSOLUTE
    ..\..\..\..\..\sdk_580\sdk\app_modules\src\app_diss\app_diss.c 0x00000000   Number         0  app_diss.o ABSOLUTE
    ..\..\..\..\..\sdk_580\sdk\app_modules\src\app_diss\app_diss_task.c 0x00000000   Number         0  app_diss_task.o ABSOLUTE
    ..\..\..\..\..\sdk_580\sdk\app_modules\src\app_easy\app_easy_msg_utils.c 0x00000000   Number         0  app_easy_msg_utils.o ABSOLUTE
    ..\..\..\..\..\sdk_580\sdk\app_modules\src\app_easy\app_easy_security.c 0x00000000   Number         0  app_easy_security.o ABSOLUTE
    ..\..\..\..\..\sdk_580\sdk\app_modules\src\app_easy\app_easy_timer.c 0x00000000   Number         0  app_easy_timer.o ABSOLUTE
    ..\..\..\..\..\sdk_580\sdk\app_modules\src\app_entry\app_entry_point.c 0x00000000   Number         0  app_entry_point.o ABSOLUTE
    ..\..\..\..\..\sdk_580\sdk\app_modules\src\app_sec\app_security.c 0x00000000   Number         0  app_security.o ABSOLUTE
    ..\..\..\..\..\sdk_580\sdk\app_modules\src\app_sec\app_security_task.c 0x00000000   Number         0  app_security_task.o ABSOLUTE
    ..\..\..\..\..\sdk_580\sdk\app_modules\src\app_spotar\app_spotar.c 0x00000000   Number         0  app_spotar.o ABSOLUTE
    ..\..\..\..\..\sdk_580\sdk\app_modules\src\app_spotar\app_spotar_task.c 0x00000000   Number         0  app_spotar_task.o ABSOLUTE
    ..\..\..\..\..\sdk_580\sdk\ble_stack\host\att\attm\attm_db_128.c 0x00000000   Number         0  attm_db_128.o ABSOLUTE
    ..\..\..\..\..\sdk_580\sdk\ble_stack\host\gap\gapm\gapm.c 0x00000000   Number         0  gapm.o ABSOLUTE
    ..\..\..\..\..\sdk_580\sdk\ble_stack\profiles\bas\bass\bass.c 0x00000000   Number         0  bass.o ABSOLUTE
    ..\..\..\..\..\sdk_580\sdk\ble_stack\profiles\bas\bass\bass_task.c 0x00000000   Number         0  bass_task.o ABSOLUTE
    ..\..\..\..\..\sdk_580\sdk\ble_stack\profiles\dis\diss\diss.c 0x00000000   Number         0  diss.o ABSOLUTE
    ..\..\..\..\..\sdk_580\sdk\ble_stack\profiles\dis\diss\diss_task.c 0x00000000   Number         0  diss_task.o ABSOLUTE
    ..\..\..\..\..\sdk_580\sdk\ble_stack\profiles\prf_utils.c 0x00000000   Number         0  prf_utils.o ABSOLUTE
    ..\..\..\..\..\sdk_580\sdk\ble_stack\profiles\spota\spotar\spotar.c 0x00000000   Number         0  spotar.o ABSOLUTE
    ..\..\..\..\..\sdk_580\sdk\ble_stack\profiles\spota\spotar\spotar_task.c 0x00000000   Number         0  spotar_task.o ABSOLUTE
    ..\..\..\..\..\sdk_580\sdk\ble_stack\rwble\rwble.c 0x00000000   Number         0  rwble.o ABSOLUTE
    ..\..\..\..\..\sdk_580\sdk\platform\arch\boot\rvds\boot_vectors.s 0x00000000   Number         0  boot_vectors.o ABSOLUTE
    ..\..\..\..\..\sdk_580\sdk\platform\arch\boot\rvds\system_ARMCM0.c 0x00000000   Number         0  system_armcm0.o ABSOLUTE
    ..\..\..\..\..\sdk_580\sdk\platform\arch\main\arch_main.c 0x00000000   Number         0  arch_main.o ABSOLUTE
    ..\..\..\..\..\sdk_580\sdk\platform\arch\main\arch_patch.c 0x00000000   Number         0  arch_patch.o ABSOLUTE
    ..\..\..\..\..\sdk_580\sdk\platform\arch\main\arch_sleep.c 0x00000000   Number         0  arch_sleep.o ABSOLUTE
    ..\..\..\..\..\sdk_580\sdk\platform\arch\main\arch_system.c 0x00000000   Number         0  arch_system.o ABSOLUTE
    ..\..\..\..\..\sdk_580\sdk\platform\arch\main\hardfault_handler.c 0x00000000   Number         0  hardfault_handler.o ABSOLUTE
    ..\..\..\..\..\sdk_580\sdk\platform\arch\main\jump_table.c 0x00000000   Number         0  jump_table.o ABSOLUTE
    ..\..\..\..\..\sdk_580\sdk\platform\arch\main\nmi_handler.c 0x00000000   Number         0  nmi_handler.o ABSOLUTE
    ..\..\..\..\..\sdk_580\sdk\platform\core_modules\arch_console\arch_console.c 0x00000000   Number         0  arch_console.o ABSOLUTE
    ..\..\..\..\..\sdk_580\sdk\platform\core_modules\nvds\src\nvds.c 0x00000000   Number         0  nvds.o ABSOLUTE
    ..\..\..\..\..\sdk_580\sdk\platform\core_modules\rf\src\rf_580.c 0x00000000   Number         0  rf_580.o ABSOLUTE
    ..\..\..\..\..\sdk_580\sdk\platform\core_modules\rwip\src\rwip.c 0x00000000   Number         0  rwip.o ABSOLUTE
    ..\..\..\..\..\sdk_580\sdk\platform\core_modules\wlan_coex\wlan_coex.c 0x00000000   Number         0  wlan_coex.o ABSOLUTE
    ..\..\..\..\..\sdk_580\sdk\platform\driver\adc\adc.c 0x00000000   Number         0  adc.o ABSOLUTE
    ..\..\..\..\..\sdk_580\sdk\platform\driver\battery\battery.c 0x00000000   Number         0  battery.o ABSOLUTE
    ..\..\..\..\..\sdk_580\sdk\platform\driver\gpio\gpio.c 0x00000000   Number         0  gpio.o ABSOLUTE
    ..\..\..\..\..\sdk_580\sdk\platform\driver\spi\spi.c 0x00000000   Number         0  spi.o ABSOLUTE
    ..\..\..\..\..\sdk_580\sdk\platform\driver\spi_flash\spi_flash.c 0x00000000   Number         0  spi_flash.o ABSOLUTE
    ..\..\..\..\..\sdk_580\sdk\platform\driver\syscntl\syscntl.c 0x00000000   Number         0  syscntl.o ABSOLUTE
    ..\..\..\..\..\sdk_580\sdk\platform\driver\systick\systick.c 0x00000000   Number         0  systick.o ABSOLUTE
    ..\..\..\..\..\sdk_580\sdk\platform\driver\trng\trng.c 0x00000000   Number         0  trng.o ABSOLUTE
    ..\..\..\..\..\sdk_580\sdk\platform\driver\uart\uart_ext_wkup.c 0x00000000   Number         0  uart_ext_wkup.o ABSOLUTE
    ..\..\..\..\..\sdk_580\sdk\platform\driver\wkupct_quadec\wkupct_quadec.c 0x00000000   Number         0  wkupct_quadec.o ABSOLUTE
    ..\..\..\..\..\sdk_580\sdk\platform\patch_code\DA14580\src\llc.c 0x00000000   Number         0  llc.obj ABSOLUTE
    ..\..\..\patch_code\src\atts_task.c      0x00000000   Number         0  atts_task.obj ABSOLUTE
    ..\..\..\patch_code\src\ke_task.c        0x00000000   Number         0  ke_task.obj ABSOLUTE
    ..\..\common\src\profiles\spss\sps_server.c 0x00000000   Number         0  sps_server.o ABSOLUTE
    ..\..\common\src\profiles\spss\sps_server_task.c 0x00000000   Number         0  sps_server_task.o ABSOLUTE
    ..\src\platform\user_periph_setup.c      0x00000000   Number         0  user_periph_setup.o ABSOLUTE
    ..\src\user_sps_device.c                 0x00000000   Number         0  user_sps_device.o ABSOLUTE
    ..\src\user_spss.c                       0x00000000   Number         0  user_spss.o ABSOLUTE
    ..\src\user_spss_task.c                  0x00000000   Number         0  user_spss_task.o ABSOLUTE
    ADS1292.c                                0x00000000   Number         0  ads1292.o ABSOLUTE
    AFE4400.c                                0x00000000   Number         0  afe4400.o ABSOLUTE
    cdrcmple.s                               0x00000000   Number         0  cdrcmple.o ABSOLUTE
    cfrcmple.s                               0x00000000   Number         0  cfrcmple.o ABSOLUTE
    dsp.c                                    0x00000000   Number         0  dsp.o ABSOLUTE
    ecgtohr.c                                0x00000000   Number         0  ecgtohr.o ABSOLUTE
    handlers.s                               0x00000000   Number         0  handlers.o ABSOLUTE
    init.s                                   0x00000000   Number         0  init.o ABSOLUTE
    heap_db_area                             0x00080768   Section     1536  jump_table.o(heap_db_area)
    heap_env_area                            0x00080d68   Section      668  jump_table.o(heap_env_area)
    heap_msg_area                            0x00081004   Section     2060  jump_table.o(heap_msg_area)
    BLE_exchange_memory                      0x00082a20   Section     1502  arch_main.o(BLE_exchange_memory)
    __tagsym$$used                           0x00082a20   Number         0  arch_main.o(BLE_exchange_memory)
    RESET                                    0x20000000   Section      160  boot_vectors.o(RESET)
    jump_table_mem_area                      0x20000160   Section      352  jump_table.o(jump_table_mem_area)
    timeout_table_area                       0x200002c0   Section      100  gapm.o(timeout_table_area)
    nvds_data_storage_area                   0x20000340   Section      164  nvds.o(nvds_data_storage_area)
    .ARM.Collect$$$$00000000                 0x20000440   Section        0  entry.o(.ARM.Collect$$$$00000000)
    .ARM.Collect$$$$00000001                 0x20000440   Section        4  entry2.o(.ARM.Collect$$$$00000001)
    .ARM.Collect$$$$00000004                 0x20000444   Section        4  entry5.o(.ARM.Collect$$$$00000004)
    .ARM.Collect$$$$00000008                 0x20000448   Section        0  entry7b.o(.ARM.Collect$$$$00000008)
    .ARM.Collect$$$$0000000A                 0x20000448   Section        0  entry8b.o(.ARM.Collect$$$$0000000A)
    .ARM.Collect$$$$0000000B                 0x20000448   Section        8  entry9a.o(.ARM.Collect$$$$0000000B)
    .ARM.Collect$$$$0000000D                 0x20000450   Section        0  entry10a.o(.ARM.Collect$$$$0000000D)
    .ARM.Collect$$$$0000000F                 0x20000450   Section        0  entry11a.o(.ARM.Collect$$$$0000000F)
    .ARM.Collect$$$$00002712                 0x20000450   Section        4  entry2.o(.ARM.Collect$$$$00002712)
    __lit__00000000                          0x20000450   Data           4  entry2.o(.ARM.Collect$$$$00002712)
    .text                                    0x20000454   Section        0  system_armcm0.o(.text)
    .text                                    0x200004a4   Section      108  boot_vectors.o(.text)
    NMI_Handler                              0x200004ad   Thumb Code    24  boot_vectors.o(.text)
    HardFault_Handler                        0x200004c5   Thumb Code    24  boot_vectors.o(.text)
    SVC_Handler                              0x200004dd   Thumb Code    24  boot_vectors.o(.text)
    .text                                    0x20000510   Section        0  hardfault_handler.o(.text)
    .text                                    0x20000528   Section        0  nmi_handler.o(.text)
    .text                                    0x20000560   Section        0  nvds.o(.text)
    da14583_spi_flash_init                   0x200006d7   Thumb Code   110  nvds.o(.text)
    .text                                    0x20000768   Section        0  arch_main.o(.text)
    arch_goto_sleep                          0x200007f9   Thumb Code   168  arch_main.o(.text)
    arch_turn_peripherals_off                0x200008a1   Thumb Code   106  arch_main.o(.text)
    .text                                    0x20000930   Section        0  jump_table.o(.text)
    .text                                    0x20000934   Section        0  arch_sleep.o(.text)
    .text                                    0x200009f8   Section        0  arch_system.o(.text)
    init_pwr_and_clk_ble                     0x200009f9   Thumb Code   196  arch_system.o(.text)
    NVIC_ClearPendingIRQ                     0x20000cf9   Thumb Code    14  arch_system.o(.text)
    .text                                    0x20000d48   Section        0  arch_patch.o(.text)
    my_lld_data_ind_handler                  0x20000d49   Thumb Code   122  arch_patch.o(.text)
    cmp_abs_time                             0x20000de7   Thumb Code    22  arch_patch.o(.text)
    .text                                    0x20000ec0   Section        0  atts_task.obj(.text)
    .text                                    0x20000fac   Section        0  ch_map.obj(.text)
    .text                                    0x20001070   Section        0  gapm_util.obj(.text)
    gapm_adv_sanity                          0x20001141   Thumb Code   170  gapm_util.obj(.text)
    .text                                    0x200011f0   Section        0  ke_task.obj(.text)
    ke_task_schedule                         0x200011f1   Thumb Code   146  ke_task.obj(.text)
    .text                                    0x200012a8   Section        0  smpc.obj(.text)
    .text                                    0x20001404   Section        0  smpc_task.obj(.text)
    .text                                    0x20001618   Section        0  llc.obj(.text)
    my_llc_le_con_update_cmd_handler         0x20001619   Thumb Code    30  llc.obj(.text)
    my_lld_stop_ind_handler                  0x2000168d   Thumb Code   106  llc.obj(.text)
    my_llc_llcp_tx_cfm_handler               0x200016f7   Thumb Code    76  llc.obj(.text)
    my_llcp_start_enc_rsp_handler            0x200017e1   Thumb Code    48  llc.obj(.text)
    my_llcp_channel_map_req_handler          0x20001811   Thumb Code    72  llc.obj(.text)
    .text                                    0x20001894   Section        0  syscntl.o(.text)
    .text                                    0x200018c0   Section        0  gpio.o(.text)
    gpioshift16                              0x20001a9b   Thumb Code    32  gpio.o(.text)
    .text                                    0x20001adc   Section        0  battery.o(.text)
    battery_filter_value                     0x20001b79   Thumb Code     2  battery.o(.text)
    .text                                    0x20001b80   Section        0  adc.o(.text)
    .text                                    0x20001ca0   Section        0  trng.o(.text)
    .text                                    0x20001e5c   Section        0  systick.o(.text)
    .text                                    0x20001e6c   Section        0  spi.o(.text)
    .text                                    0x20001fa8   Section        0  wkupct_quadec.o(.text)
    .text                                    0x20002020   Section        0  spi_flash.o(.text)
    .text                                    0x200022f4   Section        0  rf_580.o(.text)
    rf_sleep                                 0x20002339   Thumb Code    14  rf_580.o(.text)
    RADIOCNTL_Handler                        0x20002347   Thumb Code     2  rf_580.o(.text)
    rf_rssi_convert                          0x2000242b   Thumb Code     4  rf_580.o(.text)
    .text                                    0x200025e0   Section        0  rwble.o(.text)
    ble_start                                0x200028c1   Thumb Code    14  rwble.o(.text)
    .text                                    0x2000290c   Section        0  rwip.o(.text)
    .text                                    0x20002a9c   Section        0  attm_db_128.o(.text)
    .text                                    0x20002bb0   Section        0  prf_utils.o(.text)
    .text                                    0x20002ca0   Section        0  bass.o(.text)
    .text                                    0x20002d60   Section        0  bass_task.o(.text)
    bass_create_db_req_handler               0x20002d61   Thumb Code   226  bass_task.o(.text)
    bass_enable_req_handler                  0x20002e43   Thumb Code   220  bass_task.o(.text)
    bass_batt_level_upd_req_handler          0x20002f1f   Thumb Code    96  bass_task.o(.text)
    gattc_write_cmd_ind_handler              0x20002f7f   Thumb Code   190  bass_task.o(.text)
    gattc_cmp_evt_handler                    0x2000303d   Thumb Code    18  bass_task.o(.text)
    gapc_disconnect_ind_handler              0x2000304f   Thumb Code    22  bass_task.o(.text)
    .text                                    0x20003074   Section        0  spotar.o(.text)
    .text                                    0x200030c8   Section        0  spotar_task.o(.text)
    spotar_create_db_req_handler             0x200030c9   Thumb Code   508  spotar_task.o(.text)
    spotar_status_update_req_handler         0x200032c5   Thumb Code    74  spotar_task.o(.text)
    spotar_mem_info_update_req_handler       0x2000330f   Thumb Code    22  spotar_task.o(.text)
    spotar_enable_req_handler                0x20003325   Thumb Code    92  spotar_task.o(.text)
    gattc_write_cmd_ind_handler              0x20003381   Thumb Code   392  spotar_task.o(.text)
    gapc_disconnect_ind_handler              0x20003509   Thumb Code    22  spotar_task.o(.text)
    .text                                    0x20003524   Section        0  diss.o(.text)
    .text                                    0x200035c8   Section        0  diss_task.o(.text)
    diss_create_db_req_handler               0x200035c9   Thumb Code    86  diss_task.o(.text)
    diss_set_char_val_req_handler            0x2000361f   Thumb Code    74  diss_task.o(.text)
    diss_enable_req_handler                  0x20003669   Thumb Code    58  diss_task.o(.text)
    gapc_disconnect_ind_handler              0x200036a3   Thumb Code    22  diss_task.o(.text)
    .text                                    0x200036c4   Section        0  app_default_handlers.o(.text)
    .text                                    0x2000372c   Section        0  app.o(.text)
    app_task_in_user_app                     0x2000372d   Thumb Code    32  app.o(.text)
    app_db_init_next                         0x200037af   Thumb Code   118  app.o(.text)
    app_easy_gap_adv_read_from_NVDS          0x20003825   Thumb Code    90  app.o(.text)
    app_easy_gap_undirected_advertise_start_create_msg 0x2000387f   Thumb Code   208  app.o(.text)
    app_easy_gap_param_update_msg_create     0x2000394f   Thumb Code    52  app.o(.text)
    app_easy_gap_dev_config_create_msg       0x20003983   Thumb Code    82  app.o(.text)
    app_easy_gap_place_name_ad_struct        0x20003aff   Thumb Code    66  app.o(.text)
    .text                                    0x20003b40   Section        0  app_task.o(.text)
    .text                                    0x20003d34   Section        0  app_entry_point.o(.text)
    .text                                    0x20003dbc   Section        0  app_msg_utils.o(.text)
    .text                                    0x20003de4   Section        0  app_easy_msg_utils.o(.text)
    app_easy_msg_find_idx                    0x20003e13   Thumb Code    18  app_easy_msg_utils.o(.text)
    .text                                    0x20003e2c   Section        0  app_easy_timer.o(.text)
    app_easy_timer_canceled_handler          0x20003e2d   Thumb Code     2  app_easy_timer.o(.text)
    .text                                    0x20003e30   Section        0  app_easy_timer.o(.text)
    .text                                    0x20003f64   Section        0  app_bass.o(.text)
    .text                                    0x200040c4   Section        0  app_bass_task.o(.text)
    .text                                    0x20004188   Section        0  app_spotar.o(.text)
    .text                                    0x20004874   Section        0  app_spotar_task.o(.text)
    .text                                    0x20004a00   Section        0  app_diss.o(.text)
    .text                                    0x20004a48   Section        0  app_diss_task.o(.text)
    .text                                    0x20004bac   Section        0  user_periph_setup.o(.text)
    .text                                    0x2000565c   Section        0  ads1292.o(.text)
    .text                                    0x20005714   Section        0  afe4400.o(.text)
    .text                                    0x200057b0   Section        0  dsp.o(.text)
    .text                                    0x20005834   Section        0  ecgtohr.o(.text)
    .text                                    0x20005a38   Section        0  sps_server.o(.text)
    .text                                    0x20005ae4   Section        0  sps_server_task.o(.text)
    sps_server_create_db_req_handler         0x20005ae5   Thumb Code    72  sps_server_task.o(.text)
    sps_server_enable_req_handler            0x20005b2d   Thumb Code    88  sps_server_task.o(.text)
    gapc_disconnect_ind_handler              0x20005b85   Thumb Code    24  sps_server_task.o(.text)
    gattc_cmp_evt_handler                    0x20005b9d   Thumb Code    42  sps_server_task.o(.text)
    sps_server_data_tx_req_handler           0x20005bc7   Thumb Code    58  sps_server_task.o(.text)
    sps_server_rx_flow_ctrl_req_handler      0x20005c01   Thumb Code    54  sps_server_task.o(.text)
    gattc_write_cmd_ind_handler              0x20005c37   Thumb Code   214  sps_server_task.o(.text)
    .text                                    0x20005d18   Section        0  user_sps_device.o(.text)
    .text                                    0x20005e60   Section        0  user_spss.o(.text)
    .text                                    0x20005e98   Section        0  user_spss_task.o(.text)
    .text                                    0x20005f28   Section        0  fadd.o(.text)
    .text                                    0x20005fda   Section        0  fmul.o(.text)
    .text                                    0x20006054   Section        0  fdiv.o(.text)
    .text                                    0x200060d0   Section        0  dadd.o(.text)
    .text                                    0x20006234   Section        0  ddiv.o(.text)
    .text                                    0x20006324   Section        0  fflti.o(.text)
    .text                                    0x2000633a   Section        0  ffixi.o(.text)
    .text                                    0x2000636c   Section        0  f2d.o(.text)
    .text                                    0x20006394   Section       40  cdrcmple.o(.text)
    .text                                    0x200063bc   Section        0  d2f.o(.text)
    .text                                    0x200063f4   Section       20  cfrcmple.o(.text)
    .text                                    0x20006408   Section        0  llsshr.o(.text)
    .text                                    0x2000642e   Section        0  fepilogue.o(.text)
    .text                                    0x200064b0   Section        0  dsqrt.o(.text)
    .text                                    0x20006554   Section       36  init.o(.text)
    i.__scatterload_copy                     0x20006b0c   Section       14  handlers.o(i.__scatterload_copy)
    i.__scatterload_null                     0x20006b1a   Section        2  handlers.o(i.__scatterload_null)
    i.__scatterload_zeroinit                 0x20006b1c   Section       14  handlers.o(i.__scatterload_zeroinit)
    i.__set_errno                            0x20006b2c   Section        0  errno.o(i.__set_errno)
    i.free                                   0x20006b38   Section        0  malloc.o(i.free)
    i.malloc                                 0x20006b8c   Section        0  malloc.o(i.malloc)
    i.sqrt                                   0x20006bf8   Section        0  sqrt.o(i.sqrt)
    .constdata                               0x20006c40   Section        6  nvds.o(.constdata)
    all_ones_bdaddr                          0x20006c40   Data           6  nvds.o(.constdata)
    .constdata                               0x20006c46   Section       22  jump_table.o(.constdata)
    .constdata                               0x20006c5c   Section      304  arch_patch.o(.constdata)
    my_llm_default_state                     0x20006c5c   Data         304  arch_patch.o(.constdata)
    .constdata                               0x20006d8c   Section        8  arch_patch.o(.constdata)
    my_llm_default_handler                   0x20006d8c   Data           8  arch_patch.o(.constdata)
    .constdata                               0x20006d94   Section       48  arch_patch.o(.constdata)
    TASK_DESC_LLM                            0x20006d94   Data          16  arch_patch.o(.constdata)
    patch_table                              0x20006da4   Data          32  arch_patch.o(.constdata)
    .constdata                               0x20006dc4   Section      304  llc.obj(.constdata)
    my_llc_default_state                     0x20006dc4   Data         304  llc.obj(.constdata)
    .constdata                               0x20006ef4   Section       16  llc.obj(.constdata)
    my_llc_stopping                          0x20006ef4   Data          16  llc.obj(.constdata)
    .constdata                               0x20006f04   Section      176  llc.obj(.constdata)
    .constdata                               0x20006fb4   Section        8  llc.obj(.constdata)
    .constdata                               0x20006fbc   Section       16  llc.obj(.constdata)
    .constdata                               0x20006fcc   Section       80  spi_flash.o(.constdata)
    .constdata                               0x2000701c   Section       60  bass.o(.constdata)
    .constdata                               0x20007058   Section        2  bass.o(.constdata)
    .constdata                               0x2000705a   Section        5  bass.o(.constdata)
    .constdata                               0x20007060   Section       16  bass.o(.constdata)
    TASK_DESC_BASS                           0x20007060   Data          16  bass.o(.constdata)
    .constdata                               0x20007070   Section        8  bass_task.o(.constdata)
    .constdata                               0x20007078   Section        8  bass_task.o(.constdata)
    .constdata                               0x20007080   Section       24  bass_task.o(.constdata)
    .constdata                               0x20007098   Section        8  bass_task.o(.constdata)
    .constdata                               0x200070a0   Section       24  bass_task.o(.constdata)
    .constdata                               0x200070b8   Section        8  bass_task.o(.constdata)
    .constdata                               0x200070c0   Section        2  spotar.o(.constdata)
    .constdata                               0x200070c2   Section       16  spotar.o(.constdata)
    .constdata                               0x200070d2   Section       16  spotar.o(.constdata)
    .constdata                               0x200070e2   Section       16  spotar.o(.constdata)
    .constdata                               0x200070f2   Section       16  spotar.o(.constdata)
    .constdata                               0x20007102   Section       16  spotar.o(.constdata)
    .constdata                               0x20007112   Section       16  spotar.o(.constdata)
    .constdata                               0x20007124   Section       16  spotar.o(.constdata)
    TASK_DESC_SPOTAR                         0x20007124   Data          16  spotar.o(.constdata)
    .constdata                               0x20007134   Section        8  spotar_task.o(.constdata)
    .constdata                               0x2000713c   Section        8  spotar_task.o(.constdata)
    .constdata                               0x20007144   Section       24  spotar_task.o(.constdata)
    .constdata                               0x2000715c   Section        8  spotar_task.o(.constdata)
    .constdata                               0x20007164   Section       24  spotar_task.o(.constdata)
    .constdata                               0x2000717c   Section        8  spotar_task.o(.constdata)
    .constdata                               0x20007184   Section      228  diss.o(.constdata)
    .constdata                               0x20007268   Section        2  diss.o(.constdata)
    .constdata                               0x2000726a   Section        5  diss.o(.constdata)
    .constdata                               0x2000726f   Section        5  diss.o(.constdata)
    .constdata                               0x20007274   Section        5  diss.o(.constdata)
    .constdata                               0x20007279   Section        5  diss.o(.constdata)
    .constdata                               0x2000727e   Section        5  diss.o(.constdata)
    .constdata                               0x20007283   Section        5  diss.o(.constdata)
    .constdata                               0x20007288   Section        5  diss.o(.constdata)
    .constdata                               0x2000728d   Section        5  diss.o(.constdata)
    .constdata                               0x20007292   Section        5  diss.o(.constdata)
    .constdata                               0x20007298   Section       16  diss.o(.constdata)
    TASK_DESC_DISS                           0x20007298   Data          16  diss.o(.constdata)
    .constdata                               0x200072a8   Section        8  diss_task.o(.constdata)
    .constdata                               0x200072b0   Section       16  diss_task.o(.constdata)
    .constdata                               0x200072c0   Section        8  diss_task.o(.constdata)
    .constdata                               0x200072c8   Section       24  diss_task.o(.constdata)
    .constdata                               0x200072e0   Section        8  diss_task.o(.constdata)
    .constdata                               0x200072e8   Section      148  app.o(.constdata)
    user_adv_conf                            0x200072e8   Data          24  app.o(.constdata)
    user_gapm_conf                           0x20007300   Data          34  app.o(.constdata)
    user_prf_funcs                           0x20007324   Data          24  app.o(.constdata)
    TASK_DESC_APP                            0x2000736c   Data          16  app.o(.constdata)
    .constdata                               0x2000737c   Section       60  app_task.o(.constdata)
    app_process_catch_rest_cb                0x2000737c   Data           4  app_task.o(.constdata)
    app_gap_process_handlers                 0x20007380   Data          56  app_task.o(.constdata)
    .constdata                               0x200073b8   Section        8  app_task.o(.constdata)
    .constdata                               0x200073c0   Section        8  app_task.o(.constdata)
    .constdata                               0x200073c8   Section       28  app_entry_point.o(.constdata)
    app_process_catch_rest_cb                0x200073c8   Data           4  app_entry_point.o(.constdata)
    .constdata                               0x200073e4   Section       48  app_bass_task.o(.constdata)
    .constdata                               0x20007414   Section       40  app_spotar_task.o(.constdata)
    .constdata                               0x2000743c   Section       16  app_diss_task.o(.constdata)
    app_dis_process_handlers                 0x2000743c   Data          16  app_diss_task.o(.constdata)
    .constdata                               0x2000744c   Section      196  afe4400.o(.constdata)
    .constdata                               0x20007510   Section      328  dsp.o(.constdata)
    .constdata                               0x20007658   Section        4  ecgtohr.o(.constdata)
    .constdata                               0x2000765c   Section       16  sps_server.o(.constdata)
    sps_service                              0x2000765c   Data          16  sps_server.o(.constdata)
    .constdata                               0x2000766c   Section       16  sps_server.o(.constdata)
    spss_tx_data_val                         0x2000766c   Data          16  sps_server.o(.constdata)
    .constdata                               0x2000767c   Section       16  sps_server.o(.constdata)
    spss_rx_data_val                         0x2000767c   Data          16  sps_server.o(.constdata)
    .constdata                               0x2000768c   Section       16  sps_server.o(.constdata)
    spss_flow_ctrl_val                       0x2000768c   Data          16  sps_server.o(.constdata)
    .constdata                               0x2000769c   Section        2  sps_server.o(.constdata)
    att_decl_svc                             0x2000769c   Data           2  sps_server.o(.constdata)
    .constdata                               0x2000769e   Section        2  sps_server.o(.constdata)
    att_decl_char                            0x2000769e   Data           2  sps_server.o(.constdata)
    .constdata                               0x200076a0   Section        2  sps_server.o(.constdata)
    att_decl_cfg                             0x200076a0   Data           2  sps_server.o(.constdata)
    .constdata                               0x200076a2   Section        2  sps_server.o(.constdata)
    att_decl_user_desc                       0x200076a2   Data           2  sps_server.o(.constdata)
    .constdata                               0x200076a4   Section      208  sps_server.o(.constdata)
    .constdata                               0x20007774   Section       16  sps_server.o(.constdata)
    TASK_DESC_SPS_SERVER                     0x20007774   Data          16  sps_server.o(.constdata)
    .constdata                               0x20007784   Section        8  sps_server_task.o(.constdata)
    .constdata                               0x2000778c   Section        8  sps_server_task.o(.constdata)
    .constdata                               0x20007794   Section       40  sps_server_task.o(.constdata)
    .constdata                               0x200077bc   Section       24  sps_server_task.o(.constdata)
    .constdata                               0x200077d4   Section        8  sps_server_task.o(.constdata)
    .constdata                               0x200077dc   Section        4  user_sps_device.o(.constdata)
    .constdata                               0x200077e0   Section       48  user_spss_task.o(.constdata)
    .conststring                             0x20007810   Section       45  sps_server.o(.conststring)
    .data                                    0x20007870   Section        4  arch_system.o(.data)
    .data                                    0x20007874   Section       19  spotar.o(.data)
    .data                                    0x20007887   Section       19  spotar.o(.data)
    .data                                    0x2000789a   Section       19  spotar.o(.data)
    .data                                    0x200078ad   Section       19  spotar.o(.data)
    .data                                    0x200078c0   Section       19  spotar.o(.data)
    .data                                    0x200078d3   Section       19  spotar.o(.data)
    .data                                    0x200078e6   Section        4  user_periph_setup.o(.data)
    isled                                    0x200078e6   Data           1  user_periph_setup.o(.data)
    .data                                    0x200078ea   Section       12  ads1292.o(.data)
    .data                                    0x200078f6   Section       19  sps_server.o(.data)
    spss_tx_data_char                        0x200078f6   Data          19  sps_server.o(.data)
    .data                                    0x20007909   Section       19  sps_server.o(.data)
    spss_rx_data_char                        0x20007909   Data          19  sps_server.o(.data)
    .data                                    0x2000791c   Section       19  sps_server.o(.data)
    spss_flow_ctrl_char                      0x2000791c   Data          19  sps_server.o(.data)
    .data                                    0x20007930   Section        4  mvars.o(.data)
    .data                                    0x20007934   Section        4  mvars.o(.data)
    .data                                    0x20007938   Section        4  errno.o(.data)
    _errno                                   0x20007938   Data           4  errno.o(.data)
    .bss                                     0x20008000   Section      212  user_periph_setup.o(.bss)
    i                                        0x20008003   Data           1  user_periph_setup.o(.bss)
    cnt                                      0x20008004   Data           1  user_periph_setup.o(.bss)
    beepcnt                                  0x20008005   Data           1  user_periph_setup.o(.bss)
    beep                                     0x20008006   Data           1  user_periph_setup.o(.bss)
    chgcnt                                   0x2000802c   Data           4  user_periph_setup.o(.bss)
    .bss                                     0x200080d4   Section      676  dsp.o(.bss)
    y                                        0x20008110   Data          84  dsp.o(.bss)
    x                                        0x20008164   Data          84  dsp.o(.bss)
    y                                        0x200081b8   Data          84  dsp.o(.bss)
    x                                        0x2000820c   Data          84  dsp.o(.bss)
    y                                        0x20008260   Data          20  dsp.o(.bss)
    x                                        0x20008274   Data          20  dsp.o(.bss)
    y                                        0x20008288   Data          20  dsp.o(.bss)
    x                                        0x2000829c   Data          20  dsp.o(.bss)
    y                                        0x200082b0   Data          20  dsp.o(.bss)
    x                                        0x200082c4   Data          20  dsp.o(.bss)
    y                                        0x200082d8   Data          20  dsp.o(.bss)
    x                                        0x200082ec   Data          20  dsp.o(.bss)
    y                                        0x20008300   Data          20  dsp.o(.bss)
    x                                        0x20008314   Data          20  dsp.o(.bss)
    y                                        0x20008328   Data          20  dsp.o(.bss)
    x                                        0x2000833c   Data          20  dsp.o(.bss)
    y                                        0x20008350   Data          20  dsp.o(.bss)
    x                                        0x20008364   Data          20  dsp.o(.bss)
    .bss                                     0x20008378   Section      256  ecgtohr.o(.bss)
    HEAP                                     0x20008478   Section      256  boot_vectors.o(HEAP)
    retention_mem_area0                      0x20008578   Section        6  nvds.o(retention_mem_area0)
    retention_mem_area0                      0x2000857e   Section        1  arch_main.o(retention_mem_area0)
    retention_mem_area0                      0x2000857f   Section        4  arch_sleep.o(retention_mem_area0)
    retention_mem_area0                      0x20008584   Section       20  arch_system.o(retention_mem_area0)
    retention_mem_area0                      0x20008598   Section       24  llc.obj(retention_mem_area0)
    retention_mem_area0                      0x200085b0   Section       12  wkupct_quadec.o(retention_mem_area0)
    wkupct_deb_time                          0x200085b2   Data           2  wkupct_quadec.o(retention_mem_area0)
    QUADDEC_callback                         0x200085b4   Data           4  wkupct_quadec.o(retention_mem_area0)
    WKUPCT_callback                          0x200085b8   Data           4  wkupct_quadec.o(retention_mem_area0)
    retention_mem_area0                      0x200085bc   Section        1  rf_580.o(retention_mem_area0)
    near_field_mode                          0x200085bc   Data           1  rf_580.o(retention_mem_area0)
    retention_mem_area0                      0x200085be   Section        8  rwble.o(retention_mem_area0)
    retention_mem_area0                      0x200085c6   Section       14  bass.o(retention_mem_area0)
    retention_mem_area0                      0x200085d4   Section        1  bass_task.o(retention_mem_area0)
    retention_mem_area0                      0x200085d6   Section        8  spotar.o(retention_mem_area0)
    retention_mem_area0                      0x200085de   Section        1  spotar_task.o(retention_mem_area0)
    retention_mem_area0                      0x200085e0   Section       18  diss.o(retention_mem_area0)
    retention_mem_area0                      0x200085f2   Section        1  diss_task.o(retention_mem_area0)
    retention_mem_area0                      0x200085f4   Section       56  app.o(retention_mem_area0)
    i                                        0x200085f4   Data           1  app.o(retention_mem_area0)
    k                                        0x200085f5   Data           1  app.o(retention_mem_area0)
    adv_timer_id                             0x200085f6   Data           1  app.o(retention_mem_area0)
    param_update_cmd                         0x200085f8   Data           4  app.o(retention_mem_area0)
    set_dev_config_cmd                       0x200085fc   Data           4  app.o(retention_mem_area0)
    adv_cmd                                  0x20008600   Data           4  app.o(retention_mem_area0)
    start_connection_cmd                     0x20008604   Data           4  app.o(retention_mem_area0)
    adv_timeout_callback                     0x20008608   Data           4  app.o(retention_mem_area0)
    retention_mem_area0                      0x2000862c   Section        1  app_task.o(retention_mem_area0)
    retention_mem_area0                      0x20008630   Section       24  app_easy_msg_utils.o(retention_mem_area0)
    wakeup_id                                0x20008630   Data           2  app_easy_msg_utils.o(retention_mem_area0)
    msg_util_callbacks                       0x20008634   Data          20  app_easy_msg_utils.o(retention_mem_area0)
    retention_mem_area0                      0x20008648   Section       40  app_easy_timer.o(retention_mem_area0)
    timer_callbacks                          0x20008648   Data          40  app_easy_timer.o(retention_mem_area0)
    retention_mem_area0                      0x20008670   Section       10  app_bass.o(retention_mem_area0)
    active_conhdl                            0x20008678   Data           2  app_bass.o(retention_mem_area0)
    retention_mem_area0                      0x2000867c   Section       44  app_spotar.o(retention_mem_area0)
    active_conhdl                            0x2000867c   Data           2  app_spotar.o(retention_mem_area0)
    retention_mem_area0                      0x200086a8   Section       16  sps_server.o(retention_mem_area0)
    heap_mem_area_not_ret                    0x200087f4   Section     2060  jump_table.o(heap_mem_area_not_ret)
    .bss                                     0x20009020   Section       20  gpio.o(.bss)
    .bss                                     0x20009034   Section        4  systick.o(.bss)
    .bss                                     0x20009038   Section        2  spi.o(.bss)
    .bss                                     0x2000903c   Section       16  spi_flash.o(.bss)
    .bss                                     0x2000904c   Section        1  sps_server_task.o(.bss)
    .bss                                     0x2000904d   Section        1  user_sps_device.o(.bss)
    spotar_patch_area                        0x20009050   Section      336  app_spotar.o(spotar_patch_area)
    STACK                                    0x20009200   Section     1536  boot_vectors.o(STACK)

    Global Symbols

    Symbol Name                              Value     Ov Type        Size  Object(Section)

    BuildAttributes$$THM_ISAv3M$S$PE$A:L22$X:L11$S22$IEEE1$IW$USESV6$~STKCKD$USESV7$~SHL$OTIME$ROPI$IEEEJ$EBA8$MICROLIB$REQ8$PRES8$EABIv2 0x00000000   Number         0  anon$$obj.o ABSOLUTE
    __ARM_use_no_argv                        0x00000000   Number         0  rom_symdef.txt ABSOLUTE
    __cpp_initialize__aeabi_                  - Undefined Weak Reference
    __cxa_finalize                            - Undefined Weak Reference
    __decompress                              - Undefined Weak Reference
    _clock_init                               - Undefined Weak Reference
    _microlib_exit                            - Undefined Weak Reference
    __Vectors_Size                           0x000000a0   Number         0  boot_vectors.o ABSOLUTE
    exec_patching_spota                      0x000210b1   Thumb Code     0  rom_symdef.txt ABSOLUTE
    get_patching_spota_length                0x00021171   Thumb Code     0  rom_symdef.txt ABSOLUTE
    set_system_clocks                        0x00021b55   Thumb Code     0  rom_symdef.txt ABSOLUTE
    set_peripheral_clocks                    0x00021b8b   Thumb Code     0  rom_symdef.txt ABSOLUTE
    rf_workaround_init                       0x00021d23   Thumb Code     0  rom_symdef.txt ABSOLUTE
    get_stack_usage                          0x00021d79   Thumb Code     0  rom_symdef.txt ABSOLUTE
    platform_reset                           0x00021d7d   Thumb Code     0  rom_symdef.txt ABSOLUTE
    platform_reset_func                      0x00021d83   Thumb Code     0  rom_symdef.txt ABSOLUTE
    main                                     0x000220c7   Thumb Code     0  rom_symdef.txt ABSOLUTE
    rwip_eif_get                             0x000220cd   Thumb Code     0  rom_symdef.txt ABSOLUTE
    rwip_eif_get_func                        0x000220d5   Thumb Code     0  rom_symdef.txt ABSOLUTE
    app_get_sleep_mode                       0x0002211f   Thumb Code     0  rom_symdef.txt ABSOLUTE
    co_buf_init                              0x00022141   Thumb Code     0  rom_symdef.txt ABSOLUTE
    co_buf_init_deep_sleep                   0x000221a3   Thumb Code     0  rom_symdef.txt ABSOLUTE
    co_buf_rx_free                           0x00022205   Thumb Code     0  rom_symdef.txt ABSOLUTE
    co_list_init                             0x00022225   Thumb Code     0  rom_symdef.txt ABSOLUTE
    co_list_push_back                        0x0002222f   Thumb Code     0  rom_symdef.txt ABSOLUTE
    co_list_pool_init                        0x0002224b   Thumb Code     0  rom_symdef.txt ABSOLUTE
    co_list_push_front                       0x000222ab   Thumb Code     0  rom_symdef.txt ABSOLUTE
    co_list_pop_front                        0x000222bf   Thumb Code     0  rom_symdef.txt ABSOLUTE
    co_list_extract                          0x000222d3   Thumb Code     0  rom_symdef.txt ABSOLUTE
    co_list_find                             0x000222fb   Thumb Code     0  rom_symdef.txt ABSOLUTE
    co_list_merge                            0x00022311   Thumb Code     0  rom_symdef.txt ABSOLUTE
    co_bdaddr_compare                        0x00022321   Thumb Code     0  rom_symdef.txt ABSOLUTE
    dbg_init                                 0x0002233d   Thumb Code     0  rom_symdef.txt ABSOLUTE
    dbg_platform_reset_complete              0x00022351   Thumb Code     0  rom_symdef.txt ABSOLUTE
    llc_init                                 0x000228b5   Thumb Code     0  rom_symdef.txt ABSOLUTE
    llc_stop                                 0x000228e5   Thumb Code     0  rom_symdef.txt ABSOLUTE
    llc_reset                                0x00022909   Thumb Code     0  rom_symdef.txt ABSOLUTE
    llc_create_con_cmd_complete_send         0x00022931   Thumb Code     0  rom_symdef.txt ABSOLUTE
    llc_start                                0x000229a9   Thumb Code     0  rom_symdef.txt ABSOLUTE
    llc_discon_event_complete_send           0x00022a6f   Thumb Code     0  rom_symdef.txt ABSOLUTE
    llc_con_update_cmd_complete_send         0x00022a91   Thumb Code     0  rom_symdef.txt ABSOLUTE
    llc_ltk_req_send                         0x00022aeb   Thumb Code     0  rom_symdef.txt ABSOLUTE
    llc_feats_rd_event_send                  0x00022b29   Thumb Code     0  rom_symdef.txt ABSOLUTE
    llc_version_rd_event_send                0x00022b69   Thumb Code     0  rom_symdef.txt ABSOLUTE
    llc_common_cmd_complete_send             0x00022ba1   Thumb Code     0  rom_symdef.txt ABSOLUTE
    llc_common_cmd_status_send               0x00022bb7   Thumb Code     0  rom_symdef.txt ABSOLUTE
    llc_common_enc_change_evt_send           0x00022bcd   Thumb Code     0  rom_symdef.txt ABSOLUTE
    llc_common_nb_of_pkt_comp_evt_send       0x00022bf5   Thumb Code     0  rom_symdef.txt ABSOLUTE
    llc_con_update_ind                       0x00022c1d   Thumb Code     0  rom_symdef.txt ABSOLUTE
    llc_map_update_ind                       0x00022c83   Thumb Code     0  rom_symdef.txt ABSOLUTE
    llc_chnl_map_req_send                    0x00022d21   Thumb Code     0  rom_symdef.txt ABSOLUTE
    llc_add_bad_chnl                         0x00022d3b   Thumb Code     0  rom_symdef.txt ABSOLUTE
    llc_version_ind_pdu_send                 0x00022e29   Thumb Code     0  rom_symdef.txt ABSOLUTE
    llc_ch_map_update_pdu_send               0x00022e5f   Thumb Code     0  rom_symdef.txt ABSOLUTE
    llc_pause_enc_req_pdu_send               0x00022e9f   Thumb Code     0  rom_symdef.txt ABSOLUTE
    llc_pause_enc_rsp_pdu_send               0x00022edb   Thumb Code     0  rom_symdef.txt ABSOLUTE
    llc_enc_req_pdu_send                     0x00022f2b   Thumb Code     0  rom_symdef.txt ABSOLUTE
    llc_enc_rsp_pdu_send                     0x00022feb   Thumb Code     0  rom_symdef.txt ABSOLUTE
    llc_start_enc_rsp_pdu_send               0x0002307b   Thumb Code     0  rom_symdef.txt ABSOLUTE
    llc_reject_ind_pdu_send                  0x000230bd   Thumb Code     0  rom_symdef.txt ABSOLUTE
    llc_con_update_pdu_send                  0x000230e7   Thumb Code     0  rom_symdef.txt ABSOLUTE
    llc_feats_req_pdu_send                   0x0002312b   Thumb Code     0  rom_symdef.txt ABSOLUTE
    llc_start_enc_req_pdu_send               0x00023169   Thumb Code     0  rom_symdef.txt ABSOLUTE
    llc_terminate_ind_pdu_send               0x0002321f   Thumb Code     0  rom_symdef.txt ABSOLUTE
    llc_unknown_rsp_send_pdu                 0x00023293   Thumb Code     0  rom_symdef.txt ABSOLUTE
    llc_feats_req_ind                        0x000232b3   Thumb Code     0  rom_symdef.txt ABSOLUTE
    llc_feats_rsp_ind                        0x000232f7   Thumb Code     0  rom_symdef.txt ABSOLUTE
    llc_unknown_rsp_ind                      0x0002333f   Thumb Code     0  rom_symdef.txt ABSOLUTE
    llc_vers_ind_ind                         0x00023341   Thumb Code     0  rom_symdef.txt ABSOLUTE
    llc_con_update_req_ind                   0x000233bf   Thumb Code     0  rom_symdef.txt ABSOLUTE
    llc_ch_map_req_ind                       0x0002341b   Thumb Code     0  rom_symdef.txt ABSOLUTE
    llc_terminate_ind                        0x00023467   Thumb Code     0  rom_symdef.txt ABSOLUTE
    llc_reject_ind                           0x0002349f   Thumb Code     0  rom_symdef.txt ABSOLUTE
    llc_pause_enc_req_ind                    0x000234c7   Thumb Code     0  rom_symdef.txt ABSOLUTE
    llc_pause_enc_rsp_ind                    0x000234f5   Thumb Code     0  rom_symdef.txt ABSOLUTE
    llc_enc_req_ind                          0x00023563   Thumb Code     0  rom_symdef.txt ABSOLUTE
    llc_enc_rsp_ind                          0x00023625   Thumb Code     0  rom_symdef.txt ABSOLUTE
    llc_start_enc_req_ind                    0x000236cf   Thumb Code     0  rom_symdef.txt ABSOLUTE
    llc_start_enc_rsp_ind                    0x0002373b   Thumb Code     0  rom_symdef.txt ABSOLUTE
    llc_cntl_rcv                             0x000237cb   Thumb Code     0  rom_symdef.txt ABSOLUTE
    llc_data_rcv                             0x00023861   Thumb Code     0  rom_symdef.txt ABSOLUTE
    llc_le_con_update_cmd_handler            0x000238b9   Thumb Code     0  rom_symdef.txt ABSOLUTE
    llc_le_rd_chnl_map_cmd_handler           0x00023993   Thumb Code     0  rom_symdef.txt ABSOLUTE
    llc_le_rd_rem_used_feats_cmd_handler     0x000239d9   Thumb Code     0  rom_symdef.txt ABSOLUTE
    llc_le_start_enc_cmd_handler             0x00023a1f   Thumb Code     0  rom_symdef.txt ABSOLUTE
    llc_le_ltk_req_reply_cmd_handler         0x00023ad7   Thumb Code     0  rom_symdef.txt ABSOLUTE
    llc_le_ltk_req_neg_reply_cmd_handler     0x00023b41   Thumb Code     0  rom_symdef.txt ABSOLUTE
    llc_flush_cmd_handler                    0x00023bb7   Thumb Code     0  rom_symdef.txt ABSOLUTE
    llc_disconnect_cmd_handler               0x00023c09   Thumb Code     0  rom_symdef.txt ABSOLUTE
    llc_rd_rssi_cmd_handler                  0x00023c6f   Thumb Code     0  rom_symdef.txt ABSOLUTE
    llc_rd_tx_pow_lvl_cmd_handler            0x00023cd9   Thumb Code     0  rom_symdef.txt ABSOLUTE
    llc_rd_rem_info_ver_cmd_handler          0x00023d4b   Thumb Code     0  rom_symdef.txt ABSOLUTE
    llc_set_host_ch_class_cmd_handler        0x00023dc9   Thumb Code     0  rom_symdef.txt ABSOLUTE
    llm_gen_chnl_cls_cmd_handler             0x00023e21   Thumb Code     0  rom_symdef.txt ABSOLUTE
    llc_link_sup_to_ind_handler              0x00023e7f   Thumb Code     0  rom_symdef.txt ABSOLUTE
    llc_llcp_rsp_to_ind_handler              0x00023eb9   Thumb Code     0  rom_symdef.txt ABSOLUTE
    llc_data_req_handler                     0x00023f4d   Thumb Code     0  rom_symdef.txt ABSOLUTE
    lld_data_ind_handler                     0x00023fef   Thumb Code     0  rom_symdef.txt ABSOLUTE
    llm_le_enc_cmp_evt_handler               0x000241cf   Thumb Code     0  rom_symdef.txt ABSOLUTE
    lld_stop_ind_handler                     0x0002422d   Thumb Code     0  rom_symdef.txt ABSOLUTE
    llc_data_ind_handler                     0x00024299   Thumb Code     0  rom_symdef.txt ABSOLUTE
    llc_llcp_unknown_ind_handler             0x0002433d   Thumb Code     0  rom_symdef.txt ABSOLUTE
    llc_version_ind_send_handler             0x0002439b   Thumb Code     0  rom_symdef.txt ABSOLUTE
    llc_unknown_rsp_send_handler             0x000243c5   Thumb Code     0  rom_symdef.txt ABSOLUTE
    llcp_terminate_ind_handler               0x000243f1   Thumb Code     0  rom_symdef.txt ABSOLUTE
    llcp_feats_req_handler                   0x00024411   Thumb Code     0  rom_symdef.txt ABSOLUTE
    llcp_feats_rsp_handler                   0x00024459   Thumb Code     0  rom_symdef.txt ABSOLUTE
    llcp_vers_ind_handler                    0x0002448d   Thumb Code     0  rom_symdef.txt ABSOLUTE
    llcp_con_up_req_handler                  0x000244cd   Thumb Code     0  rom_symdef.txt ABSOLUTE
    llcp_channel_map_req_handler             0x00024525   Thumb Code     0  rom_symdef.txt ABSOLUTE
    llcp_enc_req_handler                     0x0002456d   Thumb Code     0  rom_symdef.txt ABSOLUTE
    llcp_enc_rsp_handler                     0x000245f7   Thumb Code     0  rom_symdef.txt ABSOLUTE
    llcp_start_enc_req_handler               0x0002462b   Thumb Code     0  rom_symdef.txt ABSOLUTE
    llcp_start_enc_rsp_handler               0x00024663   Thumb Code     0  rom_symdef.txt ABSOLUTE
    llcp_pause_enc_req_handler               0x00024693   Thumb Code     0  rom_symdef.txt ABSOLUTE
    llcp_pause_enc_rsp_handler               0x00024715   Thumb Code     0  rom_symdef.txt ABSOLUTE
    llcp_reject_ind_handler                  0x00024745   Thumb Code     0  rom_symdef.txt ABSOLUTE
    llcp_unknown_rsp_handler                 0x00024797   Thumb Code     0  rom_symdef.txt ABSOLUTE
    llc_llcp_tx_cfm_handler                  0x000247eb   Thumb Code     0  rom_symdef.txt ABSOLUTE
    llc_util_get_free_conhdl                 0x00024825   Thumb Code     0  rom_symdef.txt ABSOLUTE
    llc_util_dicon_procedure                 0x00024855   Thumb Code     0  rom_symdef.txt ABSOLUTE
    llc_util_gen_skdx                        0x00024885   Thumb Code     0  rom_symdef.txt ABSOLUTE
    llc_util_update_channel_map              0x000248a7   Thumb Code     0  rom_symdef.txt ABSOLUTE
    llc_util_set_llcp_discard_enable         0x000248b9   Thumb Code     0  rom_symdef.txt ABSOLUTE
    enable_BLE_core_irq                      0x00024909   Thumb Code     0  rom_symdef.txt ABSOLUTE
    enable_BLE_core_irq_func                 0x0002490f   Thumb Code     0  rom_symdef.txt ABSOLUTE
    lld_init                                 0x000249d1   Thumb Code     0  rom_symdef.txt ABSOLUTE
    lld_init_func                            0x000249d7   Thumb Code     0  rom_symdef.txt ABSOLUTE
    lld_reset                                0x00024b79   Thumb Code     0  rom_symdef.txt ABSOLUTE
    lld_scan_start                           0x00024bcb   Thumb Code     0  rom_symdef.txt ABSOLUTE
    lld_scan_stop                            0x00024c7d   Thumb Code     0  rom_symdef.txt ABSOLUTE
    lld_con_start                            0x00024c89   Thumb Code     0  rom_symdef.txt ABSOLUTE
    lld_move_to_master                       0x00024ed3   Thumb Code     0  rom_symdef.txt ABSOLUTE
    lld_con_update_req                       0x00024edb   Thumb Code     0  rom_symdef.txt ABSOLUTE
    lld_ch_map_req                           0x00024f1b   Thumb Code     0  rom_symdef.txt ABSOLUTE
    lld_adv_start                            0x00024f23   Thumb Code     0  rom_symdef.txt ABSOLUTE
    lld_adv_stop                             0x00025013   Thumb Code     0  rom_symdef.txt ABSOLUTE
    lld_ch_map_ind                           0x0002501f   Thumb Code     0  rom_symdef.txt ABSOLUTE
    lld_con_update_ind                       0x00025033   Thumb Code     0  rom_symdef.txt ABSOLUTE
    lld_move_to_slave                        0x00025047   Thumb Code     0  rom_symdef.txt ABSOLUTE
    lld_con_stop                             0x00025139   Thumb Code     0  rom_symdef.txt ABSOLUTE
    lld_test_stop                            0x00025143   Thumb Code     0  rom_symdef.txt ABSOLUTE
    lld_test_stop_func                       0x00025149   Thumb Code     0  rom_symdef.txt ABSOLUTE
    lld_crypt_isr                            0x00025161   Thumb Code     0  rom_symdef.txt ABSOLUTE
    lld_test_mode_tx                         0x00025171   Thumb Code     0  rom_symdef.txt ABSOLUTE
    lld_test_mode_tx_func                    0x00025177   Thumb Code     0  rom_symdef.txt ABSOLUTE
    lld_test_mode_rx                         0x00025229   Thumb Code     0  rom_symdef.txt ABSOLUTE
    lld_test_mode_rx_func                    0x0002522f   Thumb Code     0  rom_symdef.txt ABSOLUTE
    lld_data_tx_loop                         0x0002542d   Thumb Code     0  rom_symdef.txt ABSOLUTE
    lld_data_tx_push                         0x00025453   Thumb Code     0  rom_symdef.txt ABSOLUTE
    lld_data_tx_prog                         0x000254d9   Thumb Code     0  rom_symdef.txt ABSOLUTE
    lld_data_check                           0x000255b5   Thumb Code     0  rom_symdef.txt ABSOLUTE
    lld_data_tx_flush                        0x00025603   Thumb Code     0  rom_symdef.txt ABSOLUTE
    lld_evt_int_extract                      0x00025877   Thumb Code     0  rom_symdef.txt ABSOLUTE
    lld_evt_init                             0x00025f5f   Thumb Code     0  rom_symdef.txt ABSOLUTE
    lld_evt_try_free                         0x00025f65   Thumb Code     0  rom_symdef.txt ABSOLUTE
    lld_evt_end                              0x00025f81   Thumb Code     0  rom_symdef.txt ABSOLUTE
    lld_evt_rx                               0x00026023   Thumb Code     0  rom_symdef.txt ABSOLUTE
    lld_evt_schedule                         0x00026041   Thumb Code     0  rom_symdef.txt ABSOLUTE
    lld_evt_init_func                        0x000260e9   Thumb Code     0  rom_symdef.txt ABSOLUTE
    lld_evt_conhdl2evt                       0x00026147   Thumb Code     0  rom_symdef.txt ABSOLUTE
    lld_evt_ack_received                     0x0002615d   Thumb Code     0  rom_symdef.txt ABSOLUTE
    lld_evt_schedule_next                    0x00026169   Thumb Code     0  rom_symdef.txt ABSOLUTE
    lld_evt_delete                           0x00026277   Thumb Code     0  rom_symdef.txt ABSOLUTE
    lld_evt_scan_create                      0x000262e7   Thumb Code     0  rom_symdef.txt ABSOLUTE
    lld_evt_move_to_master                   0x00026323   Thumb Code     0  rom_symdef.txt ABSOLUTE
    lld_evt_update_create                    0x000263c3   Thumb Code     0  rom_symdef.txt ABSOLUTE
    lld_evt_ch_map_update_req                0x00026411   Thumb Code     0  rom_symdef.txt ABSOLUTE
    lld_evt_move_to_slave                    0x00026429   Thumb Code     0  rom_symdef.txt ABSOLUTE
    lld_evt_slave_update                     0x00026531   Thumb Code     0  rom_symdef.txt ABSOLUTE
    lld_evt_ch_map_update_ind                0x000265b9   Thumb Code     0  rom_symdef.txt ABSOLUTE
    lld_evt_adv_create                       0x000265cd   Thumb Code     0  rom_symdef.txt ABSOLUTE
    lld_evt_start_isr                        0x0002661b   Thumb Code     0  rom_symdef.txt ABSOLUTE
    lld_evt_end_isr                          0x0002662b   Thumb Code     0  rom_symdef.txt ABSOLUTE
    lld_evt_rx_isr                           0x0002663b   Thumb Code     0  rom_symdef.txt ABSOLUTE
    lld_evt_timer_isr                        0x0002664b   Thumb Code     0  rom_symdef.txt ABSOLUTE
    lld_sleep_us_2_lpcycles                  0x00026821   Thumb Code     0  rom_symdef.txt ABSOLUTE
    lld_sleep_us_2_lpcycles_func             0x00026827   Thumb Code     0  rom_symdef.txt ABSOLUTE
    lld_sleep_lpcycles_2_us                  0x00026833   Thumb Code     0  rom_symdef.txt ABSOLUTE
    lld_sleep_lpcycles_2_us_func             0x00026839   Thumb Code     0  rom_symdef.txt ABSOLUTE
    lld_sleep_compensate                     0x0002684b   Thumb Code     0  rom_symdef.txt ABSOLUTE
    lld_sleep_compensate_func                0x00026851   Thumb Code     0  rom_symdef.txt ABSOLUTE
    lld_sleep_init                           0x0002687b   Thumb Code     0  rom_symdef.txt ABSOLUTE
    lld_sleep_enter                          0x000268c7   Thumb Code     0  rom_symdef.txt ABSOLUTE
    lld_sleep_wakeup                         0x000268ef   Thumb Code     0  rom_symdef.txt ABSOLUTE
    lld_sleep_wakeup_end                     0x0002691f   Thumb Code     0  rom_symdef.txt ABSOLUTE
    lld_sleep_check                          0x0002692b   Thumb Code     0  rom_symdef.txt ABSOLUTE
    lld_util_get_bd_address                  0x000269b5   Thumb Code     0  rom_symdef.txt ABSOLUTE
    lld_util_set_bd_address                  0x000269d5   Thumb Code     0  rom_symdef.txt ABSOLUTE
    llm_wl_clr                               0x00026a65   Thumb Code     0  rom_symdef.txt ABSOLUTE
    llm_encryption_done                      0x00026a9b   Thumb Code     0  rom_symdef.txt ABSOLUTE
    llm_init                                 0x00026aa1   Thumb Code     0  rom_symdef.txt ABSOLUTE
    llm_common_cmd_complete_send             0x00026c0b   Thumb Code     0  rom_symdef.txt ABSOLUTE
    llm_ble_ready                            0x00026c1d   Thumb Code     0  rom_symdef.txt ABSOLUTE
    llm_con_req_ind                          0x00026c27   Thumb Code     0  rom_symdef.txt ABSOLUTE
    llm_adv_report_set                       0x00026cc5   Thumb Code     0  rom_symdef.txt ABSOLUTE
    llm_le_adv_report_ind                    0x00026d33   Thumb Code     0  rom_symdef.txt ABSOLUTE
    llm_con_req_tx_cfm                       0x00026e11   Thumb Code     0  rom_symdef.txt ABSOLUTE
    llm_common_cmd_status_send               0x00026e9d   Thumb Code     0  rom_symdef.txt ABSOLUTE
    llm_test_mode_start_tx                   0x00026eaf   Thumb Code     0  rom_symdef.txt ABSOLUTE
    llm_test_mode_start_rx                   0x00026f7b   Thumb Code     0  rom_symdef.txt ABSOLUTE
    llm_set_adv_param                        0x00026fb9   Thumb Code     0  rom_symdef.txt ABSOLUTE
    llm_set_adv_en                           0x00027091   Thumb Code     0  rom_symdef.txt ABSOLUTE
    llm_set_adv_data                         0x0002712d   Thumb Code     0  rom_symdef.txt ABSOLUTE
    llm_set_scan_rsp_data                    0x00027159   Thumb Code     0  rom_symdef.txt ABSOLUTE
    llm_set_scan_param                       0x00027187   Thumb Code     0  rom_symdef.txt ABSOLUTE
    llm_set_scan_en                          0x000271df   Thumb Code     0  rom_symdef.txt ABSOLUTE
    llm_wl_dev_add                           0x0002724b   Thumb Code     0  rom_symdef.txt ABSOLUTE
    llm_wl_dev_rem                           0x00027299   Thumb Code     0  rom_symdef.txt ABSOLUTE
    llm_create_con                           0x000272c9   Thumb Code     0  rom_symdef.txt ABSOLUTE
    llm_encryption_start                     0x0002741d   Thumb Code     0  rom_symdef.txt ABSOLUTE
    llm_encryption_done_func                 0x000274a5   Thumb Code     0  rom_symdef.txt ABSOLUTE
    llm_get_chnl_assess_nb_pkt               0x00027539   Thumb Code     0  rom_symdef.txt ABSOLUTE
    llm_get_chnl_assess_nb_bad_pkt           0x00027541   Thumb Code     0  rom_symdef.txt ABSOLUTE
    llm_get_min_rssi                         0x00027549   Thumb Code     0  rom_symdef.txt ABSOLUTE
    llm_delete_event                         0x00027553   Thumb Code     0  rom_symdef.txt ABSOLUTE
    TASK_LLM_llm_le_set_evt_msk_cmd_handler  0x00027585   Thumb Code     0  rom_symdef.txt ABSOLUTE
    TASK_LLM_llm_le_set_rand_add_cmd_handler 0x000275a1   Thumb Code     0  rom_symdef.txt ABSOLUTE
    TASK_LLM_llm_le_set_adv_param_cmd_handler 0x000275d3   Thumb Code     0  rom_symdef.txt ABSOLUTE
    TASK_LLM_llm_le_set_adv_data_cmd_handler 0x000275fd   Thumb Code     0  rom_symdef.txt ABSOLUTE
    TASK_LLM_llm_le_set_adv_en_cmd_handler   0x00027617   Thumb Code     0  rom_symdef.txt ABSOLUTE
    TASK_LLM_llm_le_set_scan_rsp_data_cmd_handler 0x0002765d   Thumb Code     0  rom_symdef.txt ABSOLUTE
    TASK_LLM_llm_le_set_scan_param_cmd_handler 0x00027687   Thumb Code     0  rom_symdef.txt ABSOLUTE
    TASK_LLM_llm_le_set_scan_en_cmd_handler  0x000276b1   Thumb Code     0  rom_symdef.txt ABSOLUTE
    TASK_LLM_llm_le_set_host_ch_class_cmd_handler 0x000276f7   Thumb Code     0  rom_symdef.txt ABSOLUTE
    TASK_LLM_llm_le_test_rx_cmd_handler      0x00027773   Thumb Code     0  rom_symdef.txt ABSOLUTE
    TASK_LLM_llm_le_test_tx_cmd_handler      0x000277c3   Thumb Code     0  rom_symdef.txt ABSOLUTE
    TASK_LLM_llm_le_wl_clr_cmd_handler       0x00027813   Thumb Code     0  rom_symdef.txt ABSOLUTE
    TASK_LLM_llm_le_wl_dev_add_cmd_handler   0x00027853   Thumb Code     0  rom_symdef.txt ABSOLUTE
    TASK_LLM_llm_le_wl_dev_rem_cmd_handler   0x00027895   Thumb Code     0  rom_symdef.txt ABSOLUTE
    TASK_LLM_llm_le_create_con_cmd_handler   0x000278d7   Thumb Code     0  rom_symdef.txt ABSOLUTE
    TASK_LLM_llm_le_create_con_cancel_cmd_handler 0x00027909   Thumb Code     0  rom_symdef.txt ABSOLUTE
    TASK_LLM_llm_le_chnl_assess_timer_handler 0x00027957   Thumb Code     0  rom_symdef.txt ABSOLUTE
    TASK_LLM_llm_le_rd_loc_supp_feats_cmd_handler 0x000279cb   Thumb Code     0  rom_symdef.txt ABSOLUTE
    TASK_LLM_llm_le_rd_adv_ch_tx_pw_cmd_handler 0x000279f3   Thumb Code     0  rom_symdef.txt ABSOLUTE
    TASK_LLM_llm_le_rd_wl_size_cmd_handler   0x00027a21   Thumb Code     0  rom_symdef.txt ABSOLUTE
    TASK_LLM_llm_le_rd_supp_states_cmd_handler 0x00027a43   Thumb Code     0  rom_symdef.txt ABSOLUTE
    TASK_LLM_llm_le_rd_buff_size_cmd_handler 0x00027a6b   Thumb Code     0  rom_symdef.txt ABSOLUTE
    TASK_LLM_llm_le_enc_cmd_handler          0x00027a8d   Thumb Code     0  rom_symdef.txt ABSOLUTE
    TASK_LLM_llm_le_rand_cmd_handler         0x00027aad   Thumb Code     0  rom_symdef.txt ABSOLUTE
    TASK_LLM_llm_le_test_end_cmd_handler     0x00027af3   Thumb Code     0  rom_symdef.txt ABSOLUTE
    TASK_LLM_llm_le_set_host_ch_class_cmd_sto_handler 0x00027b31   Thumb Code     0  rom_symdef.txt ABSOLUTE
    TASK_LLM_llm_reset_cmd_handler           0x00027b3b   Thumb Code     0  rom_symdef.txt ABSOLUTE
    TASK_LLM_llm_rd_bd_addr_cmd_handler      0x00027b53   Thumb Code     0  rom_symdef.txt ABSOLUTE
    TASK_LLM_llm_rd_local_ver_info_cmd_handler 0x00027b7d   Thumb Code     0  rom_symdef.txt ABSOLUTE
    TASK_LLM_llm_rd_local_supp_cmds_cmd_handler 0x00027ba7   Thumb Code     0  rom_symdef.txt ABSOLUTE
    TASK_LLM_llm_rd_local_supp_feats_cmd_handler 0x00027bcf   Thumb Code     0  rom_symdef.txt ABSOLUTE
    TASK_LLM_llm_set_evt_msk_cmd_handler     0x00027bf9   Thumb Code     0  rom_symdef.txt ABSOLUTE
    TASK_LLM_llm_set_cntl_host_flow_cmd_handler 0x00027c0b   Thumb Code     0  rom_symdef.txt ABSOLUTE
    TASK_LLM_llm_host_buff_size_cmd_handler  0x00027c6b   Thumb Code     0  rom_symdef.txt ABSOLUTE
    TASK_LLM_llm_host_nb_comp_pkts_cmd_handler 0x00027c8d   Thumb Code     0  rom_symdef.txt ABSOLUTE
    TASK_LLM_llm_rd_buff_size_cmd_handler    0x00027cf7   Thumb Code     0  rom_symdef.txt ABSOLUTE
    TASK_LLM_lld_data_ind_handler            0x00027d19   Thumb Code     0  rom_symdef.txt ABSOLUTE
    TASK_LLM_llm_disconnect_mgt              0x00027e6d   Thumb Code     0  rom_symdef.txt ABSOLUTE
    llm_util_bd_addr_in_wl                   0x00027e99   Thumb Code     0  rom_symdef.txt ABSOLUTE
    llm_util_check_address_validity          0x00027f19   Thumb Code     0  rom_symdef.txt ABSOLUTE
    llm_util_check_map_validity              0x00027f29   Thumb Code     0  rom_symdef.txt ABSOLUTE
    llm_util_apply_bd_addr                   0x00027f73   Thumb Code     0  rom_symdef.txt ABSOLUTE
    llm_util_set_public_addr                 0x00027f8b   Thumb Code     0  rom_symdef.txt ABSOLUTE
    llm_util_clear_adv_report                0x00027f99   Thumb Code     0  rom_symdef.txt ABSOLUTE
    llm_util_get_role                        0x00027fbb   Thumb Code     0  rom_symdef.txt ABSOLUTE
    llm_util_set_role                        0x00027fc3   Thumb Code     0  rom_symdef.txt ABSOLUTE
    llm_util_check_evt_mask                  0x00027fcb   Thumb Code     0  rom_symdef.txt ABSOLUTE
    llm_util_get_channel_map                 0x00027feb   Thumb Code     0  rom_symdef.txt ABSOLUTE
    uart_thr_empty_isr                       0x00028019   Thumb Code     0  rom_symdef.txt ABSOLUTE
    uart_init                                0x0002805d   Thumb Code     0  rom_symdef.txt ABSOLUTE
    uart_init_func                           0x00028063   Thumb Code     0  rom_symdef.txt ABSOLUTE
    uart_flow_on                             0x000280b7   Thumb Code     0  rom_symdef.txt ABSOLUTE
    uart_flow_on_func                        0x000280bd   Thumb Code     0  rom_symdef.txt ABSOLUTE
    uart_flow_off                            0x000280c5   Thumb Code     0  rom_symdef.txt ABSOLUTE
    uart_finish_transfers                    0x000280f5   Thumb Code     0  rom_symdef.txt ABSOLUTE
    uart_finish_transfers_func               0x000280fb   Thumb Code     0  rom_symdef.txt ABSOLUTE
    uart_read                                0x00028113   Thumb Code     0  rom_symdef.txt ABSOLUTE
    uart_read_func                           0x00028119   Thumb Code     0  rom_symdef.txt ABSOLUTE
    uart_write                               0x0002812f   Thumb Code     0  rom_symdef.txt ABSOLUTE
    uart_write_func                          0x00028135   Thumb Code     0  rom_symdef.txt ABSOLUTE
    UART_Handler                             0x00028157   Thumb Code     0  rom_symdef.txt ABSOLUTE
    UART_Handler_func                        0x0002815d   Thumb Code     0  rom_symdef.txt ABSOLUTE
    GPADC_init                               0x00028201   Thumb Code     0  rom_symdef.txt ABSOLUTE
    GPADC_init_func                          0x00028207   Thumb Code     0  rom_symdef.txt ABSOLUTE
    meas_precharge_freq                      0x0002826b   Thumb Code     0  rom_symdef.txt ABSOLUTE
    meas_precharge_freq_func                 0x00028271   Thumb Code     0  rom_symdef.txt ABSOLUTE
    check_pll_lock                           0x000283a7   Thumb Code     0  rom_symdef.txt ABSOLUTE
    check_pll_lock_func                      0x000283ad   Thumb Code     0  rom_symdef.txt ABSOLUTE
    update_calcap_min_channel                0x00028489   Thumb Code     0  rom_symdef.txt ABSOLUTE
    update_calcap_min_channel_func           0x00028493   Thumb Code     0  rom_symdef.txt ABSOLUTE
    update_calcap_max_channel                0x00028537   Thumb Code     0  rom_symdef.txt ABSOLUTE
    update_calcap_max_channel_func           0x00028541   Thumb Code     0  rom_symdef.txt ABSOLUTE
    write_one_SW_LUT_entry                   0x000285d9   Thumb Code     0  rom_symdef.txt ABSOLUTE
    write_one_SW_LUT_entry_func              0x00028615   Thumb Code     0  rom_symdef.txt ABSOLUTE
    write_HW_LUT                             0x00028631   Thumb Code     0  rom_symdef.txt ABSOLUTE
    write_HW_LUT_func                        0x00028637   Thumb Code     0  rom_symdef.txt ABSOLUTE
    clear_HW_LUT                             0x00028659   Thumb Code     0  rom_symdef.txt ABSOLUTE
    clear_HW_LUT_func                        0x0002865f   Thumb Code     0  rom_symdef.txt ABSOLUTE
    update_LUT                               0x0002866f   Thumb Code     0  rom_symdef.txt ABSOLUTE
    update_LUT_func                          0x00028675   Thumb Code     0  rom_symdef.txt ABSOLUTE
    save_configure_restore                   0x000287f3   Thumb Code     0  rom_symdef.txt ABSOLUTE
    save_configure_restore_func              0x000287f9   Thumb Code     0  rom_symdef.txt ABSOLUTE
    update_calcap_ranges                     0x0002891f   Thumb Code     0  rom_symdef.txt ABSOLUTE
    update_calcap_ranges_func                0x00028925   Thumb Code     0  rom_symdef.txt ABSOLUTE
    find_initial_calcap_ranges               0x00028a57   Thumb Code     0  rom_symdef.txt ABSOLUTE
    find_initial_calcap_ranges_func          0x00028a5d   Thumb Code     0  rom_symdef.txt ABSOLUTE
    pll_vcocal_LUT_InitUpdate                0x00028ccd   Thumb Code     0  rom_symdef.txt ABSOLUTE
    pll_vcocal_LUT_InitUpdate_func           0x00028cd3   Thumb Code     0  rom_symdef.txt ABSOLUTE
    set_rf_cal_cap                           0x00028d03   Thumb Code     0  rom_symdef.txt ABSOLUTE
    set_rf_cal_cap_func                      0x00028d09   Thumb Code     0  rom_symdef.txt ABSOLUTE
    modulationGainCalibration                0x00028d3d   Thumb Code     0  rom_symdef.txt ABSOLUTE
    modulationGainCalibration_func           0x00028d43   Thumb Code     0  rom_symdef.txt ABSOLUTE
    DCoffsetCalibration                      0x00028e21   Thumb Code     0  rom_symdef.txt ABSOLUTE
    DCoffsetCalibration_func                 0x00028e27   Thumb Code     0  rom_symdef.txt ABSOLUTE
    IffCalibration                           0x00028ef3   Thumb Code     0  rom_symdef.txt ABSOLUTE
    IffCalibration_func                      0x00028ef9   Thumb Code     0  rom_symdef.txt ABSOLUTE
    rf_calibration                           0x00028f41   Thumb Code     0  rom_symdef.txt ABSOLUTE
    rf_calibration_func                      0x00028f47   Thumb Code     0  rom_symdef.txt ABSOLUTE
    get_rc16m_count                          0x00028f93   Thumb Code     0  rom_symdef.txt ABSOLUTE
    $Super$$get_rc16m_count_func             0x00028f99   Thumb Code     0  rom_symdef.txt ABSOLUTE
    set_gauss_modgain                        0x00028fcf   Thumb Code     0  rom_symdef.txt ABSOLUTE
    set_gauss_modgain_func                   0x00028fd5   Thumb Code     0  rom_symdef.txt ABSOLUTE
    enable_rf_diag_irq                       0x00029009   Thumb Code     0  rom_symdef.txt ABSOLUTE
    enable_rf_diag_irq_func                  0x0002900f   Thumb Code     0  rom_symdef.txt ABSOLUTE
    gtl_init                                 0x000290b1   Thumb Code     0  rom_symdef.txt ABSOLUTE
    gtl_enter_sleep                          0x000290d9   Thumb Code     0  rom_symdef.txt ABSOLUTE
    gtl_exit_sleep                           0x00029103   Thumb Code     0  rom_symdef.txt ABSOLUTE
    gtl_send_msg                             0x0002910b   Thumb Code     0  rom_symdef.txt ABSOLUTE
    gtl_hci_rx_header                        0x0002915d   Thumb Code     0  rom_symdef.txt ABSOLUTE
    gtl_hci_rx_header_func                   0x00029163   Thumb Code     0  rom_symdef.txt ABSOLUTE
    gtl_hci_rx_payload                       0x000291b1   Thumb Code     0  rom_symdef.txt ABSOLUTE
    gtl_hci_rx_payload_func                  0x000291b7   Thumb Code     0  rom_symdef.txt ABSOLUTE
    gtl_hci_tx_evt                           0x000291b9   Thumb Code     0  rom_symdef.txt ABSOLUTE
    gtl_hci_tx_evt_func                      0x000291bf   Thumb Code     0  rom_symdef.txt ABSOLUTE
    gtl_sleep_to_handler                     0x0002927d   Thumb Code     0  rom_symdef.txt ABSOLUTE
    gtl_polling_to_handler                   0x00029289   Thumb Code     0  rom_symdef.txt ABSOLUTE
    gtl_eif_init                             0x000293f7   Thumb Code     0  rom_symdef.txt ABSOLUTE
    gtl_eif_init_func                        0x000293fd   Thumb Code     0  rom_symdef.txt ABSOLUTE
    gtl_eif_write                            0x00029415   Thumb Code     0  rom_symdef.txt ABSOLUTE
    gtl_eif_start                            0x00029435   Thumb Code     0  rom_symdef.txt ABSOLUTE
    gtl_eif_stop                             0x0002943d   Thumb Code     0  rom_symdef.txt ABSOLUTE
    attc_cleanup                             0x000294f5   Thumb Code     0  rom_symdef.txt ABSOLUTE
    attc_init                                0x0002950d   Thumb Code     0  rom_symdef.txt ABSOLUTE
    attc_create                              0x00029533   Thumb Code     0  rom_symdef.txt ABSOLUTE
    attc_con_enable                          0x00029541   Thumb Code     0  rom_symdef.txt ABSOLUTE
    attm_init                                0x000296d5   Thumb Code     0  rom_symdef.txt ABSOLUTE
    attm_create                              0x000296f9   Thumb Code     0  rom_symdef.txt ABSOLUTE
    attm_con_enable                          0x00029709   Thumb Code     0  rom_symdef.txt ABSOLUTE
    attm_cleanup                             0x00029719   Thumb Code     0  rom_symdef.txt ABSOLUTE
    attm_convert_16to128                     0x00029729   Thumb Code     0  rom_symdef.txt ABSOLUTE
    attm_convert_32to128                     0x00029747   Thumb Code     0  rom_symdef.txt ABSOLUTE
    attm_bt_uuid_match                       0x00029767   Thumb Code     0  rom_symdef.txt ABSOLUTE
    attm_bt32_uuid_match                     0x0002978d   Thumb Code     0  rom_symdef.txt ABSOLUTE
    attm_convert_to128                       0x000297b9   Thumb Code     0  rom_symdef.txt ABSOLUTE
    attm_uuid_match                          0x000297e9   Thumb Code     0  rom_symdef.txt ABSOLUTE
    attm_uuid_match_16                       0x0002981d   Thumb Code     0  rom_symdef.txt ABSOLUTE
    attm_is_bt_uuid128                       0x00029829   Thumb Code     0  rom_symdef.txt ABSOLUTE
    attm_is_bt32_uuid128                     0x00029853   Thumb Code     0  rom_symdef.txt ABSOLUTE
    attmdb_add_service                       0x00029895   Thumb Code     0  rom_symdef.txt ABSOLUTE
    attmdb_get_service                       0x00029957   Thumb Code     0  rom_symdef.txt ABSOLUTE
    attmdb_add_attribute                     0x00029995   Thumb Code     0  rom_symdef.txt ABSOLUTE
    attmdb_destroy                           0x00029a6b   Thumb Code     0  rom_symdef.txt ABSOLUTE
    attmdb_get_attribute                     0x00029a85   Thumb Code     0  rom_symdef.txt ABSOLUTE
    attmdb_get_next_att                      0x00029aa1   Thumb Code     0  rom_symdef.txt ABSOLUTE
    attmdb_att_update_value                  0x00029b2b   Thumb Code     0  rom_symdef.txt ABSOLUTE
    attmdb_att_set_value                     0x00029b6d   Thumb Code     0  rom_symdef.txt ABSOLUTE
    attmdb_att_partial_value_update          0x00029b73   Thumb Code     0  rom_symdef.txt ABSOLUTE
    attmdb_att_get_value                     0x00029ba5   Thumb Code     0  rom_symdef.txt ABSOLUTE
    attmdb_att_get_uuid                      0x00029bc5   Thumb Code     0  rom_symdef.txt ABSOLUTE
    attmdb_att_set_permission                0x00029c29   Thumb Code     0  rom_symdef.txt ABSOLUTE
    attmdb_att_get_permission                0x00029c41   Thumb Code     0  rom_symdef.txt ABSOLUTE
    attmdb_att_update_perm                   0x00029c5b   Thumb Code     0  rom_symdef.txt ABSOLUTE
    attmdb_svc_set_permission                0x00029c7b   Thumb Code     0  rom_symdef.txt ABSOLUTE
    attmdb_svc_get_permission                0x00029c99   Thumb Code     0  rom_symdef.txt ABSOLUTE
    attmdb_init                              0x00029cb3   Thumb Code     0  rom_symdef.txt ABSOLUTE
    attm_svc_create_db                       0x00029f45   Thumb Code     0  rom_symdef.txt ABSOLUTE
    atts_clear_prep_data                     0x0002a03d   Thumb Code     0  rom_symdef.txt ABSOLUTE
    atts_cleanup                             0x0002a05b   Thumb Code     0  rom_symdef.txt ABSOLUTE
    atts_init                                0x0002a08f   Thumb Code     0  rom_symdef.txt ABSOLUTE
    atts_create                              0x0002a0cb   Thumb Code     0  rom_symdef.txt ABSOLUTE
    atts_con_enable                          0x0002a0ed   Thumb Code     0  rom_symdef.txt ABSOLUTE
    atts_update_elmt                         0x0002a0fb   Thumb Code     0  rom_symdef.txt ABSOLUTE
    atts_store_prep_data                     0x0002a149   Thumb Code     0  rom_symdef.txt ABSOLUTE
    atts_find_uuid                           0x0002a451   Thumb Code     0  rom_symdef.txt ABSOLUTE
    atts_send_pdu                            0x0002a575   Thumb Code     0  rom_symdef.txt ABSOLUTE
    atts_allocate_pdu                        0x0002a57f   Thumb Code     0  rom_symdef.txt ABSOLUTE
    atts_mtu_exc_resp                        0x0002a5a1   Thumb Code     0  rom_symdef.txt ABSOLUTE
    atts_send_error                          0x0002a5d7   Thumb Code     0  rom_symdef.txt ABSOLUTE
    atts_find_info_resp                      0x0002a5e3   Thumb Code     0  rom_symdef.txt ABSOLUTE
    atts_get_att_chk_perm                    0x0002a719   Thumb Code     0  rom_symdef.txt ABSOLUTE
    atts_find_by_type_resp                   0x0002a887   Thumb Code     0  rom_symdef.txt ABSOLUTE
    atts_read_by_type_resp                   0x0002a9a7   Thumb Code     0  rom_symdef.txt ABSOLUTE
    atts_read_by_grp_type_resp               0x0002aa93   Thumb Code     0  rom_symdef.txt ABSOLUTE
    atts_read_resp                           0x0002ab95   Thumb Code     0  rom_symdef.txt ABSOLUTE
    atts_read_blob_resp                      0x0002abf9   Thumb Code     0  rom_symdef.txt ABSOLUTE
    atts_read_mult_resp                      0x0002ac69   Thumb Code     0  rom_symdef.txt ABSOLUTE
    atts_write_no_resp                       0x0002ad17   Thumb Code     0  rom_symdef.txt ABSOLUTE
    atts_write_resp                          0x0002ad77   Thumb Code     0  rom_symdef.txt ABSOLUTE
    atts_signed_write_resp                   0x0002adf1   Thumb Code     0  rom_symdef.txt ABSOLUTE
    atts_prepare_write_resp                  0x0002ae85   Thumb Code     0  rom_symdef.txt ABSOLUTE
    atts_execute_write_resp                  0x0002af11   Thumb Code     0  rom_symdef.txt ABSOLUTE
    atts_send_cmd_cmp                        0x0002afd5   Thumb Code     0  rom_symdef.txt ABSOLUTE
    atts_write_rsp_send                      0x0002aff3   Thumb Code     0  rom_symdef.txt ABSOLUTE
    gattc_cleanup                            0x0002b0a3   Thumb Code     0  rom_symdef.txt ABSOLUTE
    gattc_init                               0x0002b0cd   Thumb Code     0  rom_symdef.txt ABSOLUTE
    gattc_create                             0x0002b109   Thumb Code     0  rom_symdef.txt ABSOLUTE
    gattc_send_att_req                       0x0002b13b   Thumb Code     0  rom_symdef.txt ABSOLUTE
    gattc_allocate_att_req                   0x0002b145   Thumb Code     0  rom_symdef.txt ABSOLUTE
    gattc_send_execute                       0x0002b165   Thumb Code     0  rom_symdef.txt ABSOLUTE
    gattc_get_event_dest                     0x0002b179   Thumb Code     0  rom_symdef.txt ABSOLUTE
    gattc_init_operation                     0x0002b1b7   Thumb Code     0  rom_symdef.txt ABSOLUTE
    gattc_get_operation                      0x0002b1d1   Thumb Code     0  rom_symdef.txt ABSOLUTE
    gattc_send_complete_evt                  0x0002b1e5   Thumb Code     0  rom_symdef.txt ABSOLUTE
    gattc_get_mtu                            0x0002b2d3   Thumb Code     0  rom_symdef.txt ABSOLUTE
    gattc_set_mtu                            0x0002b2dd   Thumb Code     0  rom_symdef.txt ABSOLUTE
    gattm_svc_get_start_hdl                  0x0002c2e9   Thumb Code     0  rom_symdef.txt ABSOLUTE
    gattm_init                               0x0002c2ef   Thumb Code     0  rom_symdef.txt ABSOLUTE
    gattm_create                             0x0002c317   Thumb Code     0  rom_symdef.txt ABSOLUTE
    gattm_cleanup                            0x0002c31f   Thumb Code     0  rom_symdef.txt ABSOLUTE
    gattm_get_max_mtu                        0x0002c327   Thumb Code     0  rom_symdef.txt ABSOLUTE
    gattm_set_max_mtu                        0x0002c32d   Thumb Code     0  rom_symdef.txt ABSOLUTE
    l2cc_cleanup                             0x0002c479   Thumb Code     0  rom_symdef.txt ABSOLUTE
    l2cc_init                                0x0002c4a9   Thumb Code     0  rom_symdef.txt ABSOLUTE
    l2cc_create                              0x0002c4e5   Thumb Code     0  rom_symdef.txt ABSOLUTE
    l2cc_update_state                        0x0002c515   Thumb Code     0  rom_symdef.txt ABSOLUTE
    l2cm_init                                0x0002c759   Thumb Code     0  rom_symdef.txt ABSOLUTE
    l2cm_create                              0x0002c781   Thumb Code     0  rom_symdef.txt ABSOLUTE
    l2cm_cleanup                             0x0002c789   Thumb Code     0  rom_symdef.txt ABSOLUTE
    l2cm_set_link_layer_buff_size            0x0002c7a9   Thumb Code     0  rom_symdef.txt ABSOLUTE
    smpc_regs_push                           0x0002c7b9   Thumb Code     0  rom_symdef.txt ABSOLUTE
    smpc_regs_pop                            0x0002c7bb   Thumb Code     0  rom_symdef.txt ABSOLUTE
    smpc_clear_timeout_timer                 0x0002c7bd   Thumb Code     0  rom_symdef.txt ABSOLUTE
    smpc_cleanup                             0x0002c7e1   Thumb Code     0  rom_symdef.txt ABSOLUTE
    smpc_init                                0x0002c841   Thumb Code     0  rom_symdef.txt ABSOLUTE
    smpc_create                              0x0002c87d   Thumb Code     0  rom_symdef.txt ABSOLUTE
    smpc_init_operation                      0x0002c8ab   Thumb Code     0  rom_symdef.txt ABSOLUTE
    smpc_send_cmp_evt                        0x0002c8c1   Thumb Code     0  rom_symdef.txt ABSOLUTE
    smpc_send_use_enc_block_cmd              0x0002c935   Thumb Code     0  rom_symdef.txt ABSOLUTE
    smpc_send_start_enc_cmd                  0x0002c96d   Thumb Code     0  rom_symdef.txt ABSOLUTE
    smpc_send_ltk_req_rsp                    0x0002c9cb   Thumb Code     0  rom_symdef.txt ABSOLUTE
    smpc_send_pairing_ind                    0x0002cadb   Thumb Code     0  rom_symdef.txt ABSOLUTE
    smpc_launch_rep_att_timer                0x0002cb6f   Thumb Code     0  rom_symdef.txt ABSOLUTE
    smpc_check_repeated_attempts             0x0002cbbd   Thumb Code     0  rom_symdef.txt ABSOLUTE
    smpc_check_max_key_size                  0x0002cc01   Thumb Code     0  rom_symdef.txt ABSOLUTE
    smpc_check_key_distrib                   0x0002cc29   Thumb Code     0  rom_symdef.txt ABSOLUTE
    smpc_xor                                 0x0002cc7d   Thumb Code     0  rom_symdef.txt ABSOLUTE
    smpc_generate_l                          0x0002cc93   Thumb Code     0  rom_symdef.txt ABSOLUTE
    smpc_generate_ci                         0x0002ccdf   Thumb Code     0  rom_symdef.txt ABSOLUTE
    smpc_generate_rand                       0x0002cd4b   Thumb Code     0  rom_symdef.txt ABSOLUTE
    smpc_generate_e1                         0x0002cd6f   Thumb Code     0  rom_symdef.txt ABSOLUTE
    smpc_generate_cfm                        0x0002ce25   Thumb Code     0  rom_symdef.txt ABSOLUTE
    smpc_generate_stk                        0x0002cead   Thumb Code     0  rom_symdef.txt ABSOLUTE
    smpc_calc_subkeys                        0x0002cf01   Thumb Code     0  rom_symdef.txt ABSOLUTE
    smpc_pairing_end                         0x0002cf77   Thumb Code     0  rom_symdef.txt ABSOLUTE
    smpc_tkdp_rcp_continue                   0x0002d00b   Thumb Code     0  rom_symdef.txt ABSOLUTE
    smpc_tkdp_rcp_start                      0x0002d069   Thumb Code     0  rom_symdef.txt ABSOLUTE
    smpc_pdu_send                            0x0002d0ab   Thumb Code     0  rom_symdef.txt ABSOLUTE
    smpc_tkdp_send_start                     0x0002d11b   Thumb Code     0  rom_symdef.txt ABSOLUTE
    smpc_tkdp_send_continue                  0x0002d199   Thumb Code     0  rom_symdef.txt ABSOLUTE
    smpc_get_key_sec_prop                    0x0002d215   Thumb Code     0  rom_symdef.txt ABSOLUTE
    smpc_is_sec_mode_reached                 0x0002d28d   Thumb Code     0  rom_symdef.txt ABSOLUTE
    smpc_handle_enc_change_evt               0x0002d2b7   Thumb Code     0  rom_symdef.txt ABSOLUTE
    smpc_pdu_recv                            0x0002d35d   Thumb Code     0  rom_symdef.txt ABSOLUTE
    smpm_init                                0x0002de21   Thumb Code     0  rom_symdef.txt ABSOLUTE
    smpm_create                              0x0002de5b   Thumb Code     0  rom_symdef.txt ABSOLUTE
    smpm_cleanup                             0x0002de63   Thumb Code     0  rom_symdef.txt ABSOLUTE
    smpm_send_cmp_evt                        0x0002de6b   Thumb Code     0  rom_symdef.txt ABSOLUTE
    smpm_send_encrypt_req                    0x0002dea3   Thumb Code     0  rom_symdef.txt ABSOLUTE
    smpm_send_gen_rand_nb_req                0x0002ded1   Thumb Code     0  rom_symdef.txt ABSOLUTE
    smpm_check_addr_type                     0x0002dedf   Thumb Code     0  rom_symdef.txt ABSOLUTE
    gapc_init                                0x0002e269   Thumb Code     0  rom_symdef.txt ABSOLUTE
    gapc_con_create                          0x0002e2a5   Thumb Code     0  rom_symdef.txt ABSOLUTE
    gapc_con_cleanup                         0x0002e385   Thumb Code     0  rom_symdef.txt ABSOLUTE
    gapc_send_disconect_ind                  0x0002e395   Thumb Code     0  rom_symdef.txt ABSOLUTE
    gapc_get_conidx                          0x0002e3b7   Thumb Code     0  rom_symdef.txt ABSOLUTE
    gapc_get_conhdl                          0x0002e3e3   Thumb Code     0  rom_symdef.txt ABSOLUTE
    gapc_get_role                            0x0002e3f9   Thumb Code     0  rom_symdef.txt ABSOLUTE
    gapc_get_bdaddr                          0x0002e415   Thumb Code     0  rom_symdef.txt ABSOLUTE
    gapc_get_csrk                            0x0002e435   Thumb Code     0  rom_symdef.txt ABSOLUTE
    gapc_get_sign_counter                    0x0002e453   Thumb Code     0  rom_symdef.txt ABSOLUTE
    gapc_send_complete_evt                   0x0002e471   Thumb Code     0  rom_symdef.txt ABSOLUTE
    gapc_send_error_evt                      0x0002e4bd   Thumb Code     0  rom_symdef.txt ABSOLUTE
    gapc_is_sec_set                          0x0002e4df   Thumb Code     0  rom_symdef.txt ABSOLUTE
    gapc_get_enc_keysize                     0x0002e549   Thumb Code     0  rom_symdef.txt ABSOLUTE
    gapc_set_enc_keysize                     0x0002e561   Thumb Code     0  rom_symdef.txt ABSOLUTE
    gapc_link_encrypted                      0x0002e575   Thumb Code     0  rom_symdef.txt ABSOLUTE
    gapc_auth_set                            0x0002e58f   Thumb Code     0  rom_symdef.txt ABSOLUTE
    gapc_param_updata_sanity                 0x0002e67b   Thumb Code     0  rom_symdef.txt ABSOLUTE
    gapm_init                                0x0002f4f3   Thumb Code     0  rom_symdef.txt ABSOLUTE
    gapm_host_init                           0x0002f547   Thumb Code     0  rom_symdef.txt ABSOLUTE
    gapm_get_operation                       0x0002f56d   Thumb Code     0  rom_symdef.txt ABSOLUTE
    gapm_send_complete_evt                   0x0002f57f   Thumb Code     0  rom_symdef.txt ABSOLUTE
    gapm_send_error_evt                      0x0002f5b5   Thumb Code     0  rom_symdef.txt ABSOLUTE
    gapm_con_create                          0x0002f5d3   Thumb Code     0  rom_symdef.txt ABSOLUTE
    gapm_con_enable                          0x0002f631   Thumb Code     0  rom_symdef.txt ABSOLUTE
    gapm_con_cleanup                         0x0002f63d   Thumb Code     0  rom_symdef.txt ABSOLUTE
    gapm_get_privacy_flag                    0x00030c7f   Thumb Code     0  rom_symdef.txt ABSOLUTE
    gapm_set_recon_addr                      0x00030cab   Thumb Code     0  rom_symdef.txt ABSOLUTE
    gapm_adv_op_sanity                       0x00030cef   Thumb Code     0  rom_symdef.txt ABSOLUTE
    gapm_set_adv_mode                        0x00030e75   Thumb Code     0  rom_symdef.txt ABSOLUTE
    gapm_execute_adv_op                      0x00030e8d   Thumb Code     0  rom_symdef.txt ABSOLUTE
    gapm_scan_op_sanity                      0x00030fdd   Thumb Code     0  rom_symdef.txt ABSOLUTE
    gapm_set_scan_mode                       0x000310b5   Thumb Code     0  rom_symdef.txt ABSOLUTE
    gapm_execute_scan_op                     0x000310d1   Thumb Code     0  rom_symdef.txt ABSOLUTE
    gapm_connect_op_sanity                   0x00031175   Thumb Code     0  rom_symdef.txt ABSOLUTE
    gapm_execute_connect_op                  0x000312b9   Thumb Code     0  rom_symdef.txt ABSOLUTE
    gapm_get_role                            0x0003142d   Thumb Code     0  rom_symdef.txt ABSOLUTE
    gapm_get_recon_addr                      0x00031433   Thumb Code     0  rom_symdef.txt ABSOLUTE
    gapm_set_privacy_flag                    0x00031473   Thumb Code     0  rom_symdef.txt ABSOLUTE
    gapm_get_ad_type_flag                    0x0003149f   Thumb Code     0  rom_symdef.txt ABSOLUTE
    gapm_add_to_filter                       0x000314c5   Thumb Code     0  rom_symdef.txt ABSOLUTE
    gapm_is_filtered                         0x00031529   Thumb Code     0  rom_symdef.txt ABSOLUTE
    gapm_update_air_op_state                 0x0003157f   Thumb Code     0  rom_symdef.txt ABSOLUTE
    gapm_get_irk                             0x00031635   Thumb Code     0  rom_symdef.txt ABSOLUTE
    gapm_get_bdaddr                          0x0003163b   Thumb Code     0  rom_symdef.txt ABSOLUTE
    l2cc_pdu_pack                            0x0003164d   Thumb Code     0  rom_symdef.txt ABSOLUTE
    l2cc_pdu_unpack                          0x000318f3   Thumb Code     0  rom_symdef.txt ABSOLUTE
    l2cc_detect_dest                         0x00031b2d   Thumb Code     0  rom_symdef.txt ABSOLUTE
    smpc_check_param                         0x00031b95   Thumb Code     0  rom_symdef.txt ABSOLUTE
    ke_init                                  0x0003200d   Thumb Code     0  rom_symdef.txt ABSOLUTE
    ke_flush                                 0x00032039   Thumb Code     0  rom_symdef.txt ABSOLUTE
    ke_sleep_check                           0x00032079   Thumb Code     0  rom_symdef.txt ABSOLUTE
    ke_event_init                            0x00032091   Thumb Code     0  rom_symdef.txt ABSOLUTE
    ke_event_callback_set                    0x0003209d   Thumb Code     0  rom_symdef.txt ABSOLUTE
    ke_event_set                             0x000320b1   Thumb Code     0  rom_symdef.txt ABSOLUTE
    ke_event_clear                           0x000320dd   Thumb Code     0  rom_symdef.txt ABSOLUTE
    ke_event_get                             0x00032109   Thumb Code     0  rom_symdef.txt ABSOLUTE
    ke_event_get_all                         0x0003212f   Thumb Code     0  rom_symdef.txt ABSOLUTE
    ke_event_flush                           0x00032135   Thumb Code     0  rom_symdef.txt ABSOLUTE
    ke_event_schedule                        0x0003213d   Thumb Code     0  rom_symdef.txt ABSOLUTE
    ke_mem_init                              0x0003218d   Thumb Code     0  rom_symdef.txt ABSOLUTE
    ke_mem_is_empty                          0x000321d7   Thumb Code     0  rom_symdef.txt ABSOLUTE
    ke_malloc                                0x00032215   Thumb Code     0  rom_symdef.txt ABSOLUTE
    ke_free                                  0x000322d7   Thumb Code     0  rom_symdef.txt ABSOLUTE
    ke_msg_alloc                             0x000323b1   Thumb Code     0  rom_symdef.txt ABSOLUTE
    ke_msg_send                              0x000323e1   Thumb Code     0  rom_symdef.txt ABSOLUTE
    ke_msg_send_basic                        0x0003240d   Thumb Code     0  rom_symdef.txt ABSOLUTE
    ke_msg_forward                           0x0003241b   Thumb Code     0  rom_symdef.txt ABSOLUTE
    ke_msg_forward_new_id                    0x00032425   Thumb Code     0  rom_symdef.txt ABSOLUTE
    ke_msg_free                              0x00032435   Thumb Code     0  rom_symdef.txt ABSOLUTE
    ke_queue_extract                         0x00032441   Thumb Code     0  rom_symdef.txt ABSOLUTE
    ke_queue_insert                          0x0003247f   Thumb Code     0  rom_symdef.txt ABSOLUTE
    ke_task_init                             0x0003256d   Thumb Code     0  rom_symdef.txt ABSOLUTE
    ke_task_create                           0x00032587   Thumb Code     0  rom_symdef.txt ABSOLUTE
    ke_task_delete                           0x000325e1   Thumb Code     0  rom_symdef.txt ABSOLUTE
    ke_state_set                             0x00032631   Thumb Code     0  rom_symdef.txt ABSOLUTE
    ke_state_get                             0x000326b3   Thumb Code     0  rom_symdef.txt ABSOLUTE
    ke_msg_discard                           0x000326e3   Thumb Code     0  rom_symdef.txt ABSOLUTE
    ke_msg_save                              0x000326e7   Thumb Code     0  rom_symdef.txt ABSOLUTE
    ke_task_handler_get                      0x000326eb   Thumb Code     0  rom_symdef.txt ABSOLUTE
    ke_timer_init                            0x00032813   Thumb Code     0  rom_symdef.txt ABSOLUTE
    ke_timer_init_func                       0x00032819   Thumb Code     0  rom_symdef.txt ABSOLUTE
    ke_timer_set                             0x00032825   Thumb Code     0  rom_symdef.txt ABSOLUTE
    ke_timer_clear                           0x000328a5   Thumb Code     0  rom_symdef.txt ABSOLUTE
    ke_timer_active                          0x000328fb   Thumb Code     0  rom_symdef.txt ABSOLUTE
    ke_timer_sleep_check                     0x00032921   Thumb Code     0  rom_symdef.txt ABSOLUTE
    ke_time                                  0x0003297d   Thumb Code     0  rom_symdef.txt ABSOLUTE
    nvds_get                                 0x000329d1   Thumb Code     0  rom_symdef.txt ABSOLUTE
    nvds_get_func                            0x000329d7   Thumb Code     0  rom_symdef.txt ABSOLUTE
    nvds_init                                0x00032bcf   Thumb Code     0  rom_symdef.txt ABSOLUTE
    rwble_hl_init                            0x00032be5   Thumb Code     0  rom_symdef.txt ABSOLUTE
    rwble_hl_send_message                    0x00032c0b   Thumb Code     0  rom_symdef.txt ABSOLUTE
    ble_regs_push                            0x00032c0d   Thumb Code     0  rom_symdef.txt ABSOLUTE
    ble_regs_pop                             0x00032c65   Thumb Code     0  rom_symdef.txt ABSOLUTE
    rf_init                                  0x00032cbd   Thumb Code     0  rom_symdef.txt ABSOLUTE
    rf_reinit                                0x00032cc3   Thumb Code     0  rom_symdef.txt ABSOLUTE
    rwip_init                                0x00032ccb   Thumb Code     0  rom_symdef.txt ABSOLUTE
    rwip_reset                               0x00032d8d   Thumb Code     0  rom_symdef.txt ABSOLUTE
    rwip_version                             0x00032db9   Thumb Code     0  rom_symdef.txt ABSOLUTE
    rwip_prevent_sleep_get                   0x00032dc1   Thumb Code     0  rom_symdef.txt ABSOLUTE
    rwip_schedule                            0x00032dc9   Thumb Code     0  rom_symdef.txt ABSOLUTE
    rwip_prevent_sleep_set                   0x00032eb7   Thumb Code     0  rom_symdef.txt ABSOLUTE
    rwip_wakeup                              0x00032edb   Thumb Code     0  rom_symdef.txt ABSOLUTE
    rwip_prevent_sleep_clear                 0x00032eed   Thumb Code     0  rom_symdef.txt ABSOLUTE
    rwip_wakeup_end                          0x00032f11   Thumb Code     0  rom_symdef.txt ABSOLUTE
    rwip_wakeup_delay_set                    0x00032f2f   Thumb Code     0  rom_symdef.txt ABSOLUTE
    rwip_sleep_enable                        0x00032f3f   Thumb Code     0  rom_symdef.txt ABSOLUTE
    rwip_ext_wakeup_enable                   0x00032f47   Thumb Code     0  rom_symdef.txt ABSOLUTE
    rwble_init                               0x00032f71   Thumb Code     0  rom_symdef.txt ABSOLUTE
    rwble_reset                              0x00032fd5   Thumb Code     0  rom_symdef.txt ABSOLUTE
    rwble_version                            0x00033003   Thumb Code     0  rom_symdef.txt ABSOLUTE
    rwble_get_clock                          0x0003302d   Thumb Code     0  rom_symdef.txt ABSOLUTE
    $Super$$BLE_FINETGTIM_Handler            0x00033105   Thumb Code     0  rom_symdef.txt ABSOLUTE
    BLE_GROSSTGTIM_Handler                   0x0003310d   Thumb Code     0  rom_symdef.txt ABSOLUTE
    $Super$$BLE_CSCNT_Handler                0x00033115   Thumb Code     0  rom_symdef.txt ABSOLUTE
    BLE_ERROR_Handler                        0x0003318d   Thumb Code     0  rom_symdef.txt ABSOLUTE
    BLE_CRYPT_Handler                        0x000331ad   Thumb Code     0  rom_symdef.txt ABSOLUTE
    func_check_mem                           0x000331eb   Thumb Code     0  rom_symdef.txt ABSOLUTE
    test_rxdone                              0x0003323d   Thumb Code     0  rom_symdef.txt ABSOLUTE
    prf_create                               0x000339fd   Thumb Code     0  rom_symdef.txt ABSOLUTE
    prf_init                                 0x00033a23   Thumb Code     0  rom_symdef.txt ABSOLUTE
    prf_cleanup                              0x00033a2b   Thumb Code     0  rom_symdef.txt ABSOLUTE
    __aeabi_uidiv                            0x00033aa7   Thumb Code     0  rom_symdef.txt ABSOLUTE
    __aeabi_uidivmod                         0x00033aa7   Thumb Code     0  rom_symdef.txt ABSOLUTE
    __aeabi_idiv                             0x00033ad3   Thumb Code     0  rom_symdef.txt ABSOLUTE
    __aeabi_idivmod                          0x00033ad3   Thumb Code     0  rom_symdef.txt ABSOLUTE
    rand                                     0x00033afd   Thumb Code     0  rom_symdef.txt ABSOLUTE
    srand                                    0x00033b0f   Thumb Code     0  rom_symdef.txt ABSOLUTE
    __aeabi_memcpy                           0x00033b21   Thumb Code     0  rom_symdef.txt ABSOLUTE
    __aeabi_memcpy4                          0x00033b21   Thumb Code     0  rom_symdef.txt ABSOLUTE
    __aeabi_memcpy8                          0x00033b21   Thumb Code     0  rom_symdef.txt ABSOLUTE
    __aeabi_memset                           0x00033b45   Thumb Code     0  rom_symdef.txt ABSOLUTE
    __aeabi_memset4                          0x00033b45   Thumb Code     0  rom_symdef.txt ABSOLUTE
    __aeabi_memset8                          0x00033b45   Thumb Code     0  rom_symdef.txt ABSOLUTE
    __aeabi_memclr                           0x00033b53   Thumb Code     0  rom_symdef.txt ABSOLUTE
    __aeabi_memclr4                          0x00033b53   Thumb Code     0  rom_symdef.txt ABSOLUTE
    __aeabi_memclr8                          0x00033b53   Thumb Code     0  rom_symdef.txt ABSOLUTE
    _memset$wrapper                          0x00033b57   Thumb Code     0  rom_symdef.txt ABSOLUTE
    strlen                                   0x00033b69   Thumb Code     0  rom_symdef.txt ABSOLUTE
    memcmp                                   0x00033b77   Thumb Code     0  rom_symdef.txt ABSOLUTE
    __aeabi_dmul                             0x00033b91   Thumb Code     0  rom_symdef.txt ABSOLUTE
    __aeabi_i2d                              0x00033c61   Thumb Code     0  rom_symdef.txt ABSOLUTE
    __aeabi_ui2d                             0x00033c89   Thumb Code     0  rom_symdef.txt ABSOLUTE
    __aeabi_cdcmpeq                          0x00033ca5   Thumb Code     0  rom_symdef.txt ABSOLUTE
    __aeabi_cdcmple                          0x00033ca5   Thumb Code     0  rom_symdef.txt ABSOLUTE
    __I$use$fp                               0x00033ccd   Thumb Code     0  rom_symdef.txt ABSOLUTE
    _double_round                            0x00033ccd   Thumb Code     0  rom_symdef.txt ABSOLUTE
    _double_epilogue                         0x00033ce7   Thumb Code     0  rom_symdef.txt ABSOLUTE
    __aeabi_llsl                             0x00033d8d   Thumb Code     0  rom_symdef.txt ABSOLUTE
    _ll_shift_l                              0x00033d8d   Thumb Code     0  rom_symdef.txt ABSOLUTE
    __aeabi_llsr                             0x00033dad   Thumb Code     0  rom_symdef.txt ABSOLUTE
    _ll_ushift_r                             0x00033dad   Thumb Code     0  rom_symdef.txt ABSOLUTE
    __ARM_clz                                0x00033dcf   Thumb Code     0  rom_symdef.txt ABSOLUTE
    __ARM_common_switch8                     0x00033dfd   Thumb Code     0  rom_symdef.txt ABSOLUTE
    uart_api                                 0x00033e18   Data           0  rom_symdef.txt ABSOLUTE
    co_sca2ppm                               0x00033e28   Data           0  rom_symdef.txt ABSOLUTE
    co_null_bdaddr                           0x00033e38   Data           0  rom_symdef.txt ABSOLUTE
    co_default_bdaddr                        0x00033e3e   Data           0  rom_symdef.txt ABSOLUTE
    dbg_default_handler                      0x00033f14   Data           0  rom_symdef.txt ABSOLUTE
    llc_default_state                        0x00033fac   Data           0  rom_symdef.txt ABSOLUTE
    llc_state_handler                        0x000340dc   Data           0  rom_symdef.txt ABSOLUTE
    llc_default_handler                      0x0003418c   Data           0  rom_symdef.txt ABSOLUTE
    llm_local_cmds                           0x000341bc   Data           0  rom_symdef.txt ABSOLUTE
    llm_local_le_feats                       0x000341fc   Data           0  rom_symdef.txt ABSOLUTE
    llm_local_le_states                      0x00034204   Data           0  rom_symdef.txt ABSOLUTE
    llm_default_state                        0x00034224   Data           0  rom_symdef.txt ABSOLUTE
    llm_state_handler                        0x00034354   Data           0  rom_symdef.txt ABSOLUTE
    llm_default_handler                      0x00034384   Data           0  rom_symdef.txt ABSOLUTE
    LLM_AA_CT1                               0x0003438c   Data           0  rom_symdef.txt ABSOLUTE
    LLM_AA_CT2                               0x0003438f   Data           0  rom_symdef.txt ABSOLUTE
    gtl_default_state                        0x000343a4   Data           0  rom_symdef.txt ABSOLUTE
    gtl_default_handler                      0x000343bc   Data           0  rom_symdef.txt ABSOLUTE
    attc_default_state                       0x000343d8   Data           0  rom_symdef.txt ABSOLUTE
    attc_state_handler                       0x000343f8   Data           0  rom_symdef.txt ABSOLUTE
    attc_default_handler                     0x00034410   Data           0  rom_symdef.txt ABSOLUTE
    attm_default_state                       0x00034428   Data           0  rom_symdef.txt ABSOLUTE
    attm_state_handler                       0x00034480   Data           0  rom_symdef.txt ABSOLUTE
    attm_default_handler                     0x00034488   Data           0  rom_symdef.txt ABSOLUTE
    atts_default_state                       0x000344a0   Data           0  rom_symdef.txt ABSOLUTE
    atts_state_handler                       0x000344d0   Data           0  rom_symdef.txt ABSOLUTE
    atts_default_handler                     0x000344f8   Data           0  rom_symdef.txt ABSOLUTE
    gattc_default_state                      0x00034510   Data           0  rom_symdef.txt ABSOLUTE
    gattc_state_handler                      0x00034598   Data           0  rom_symdef.txt ABSOLUTE
    gattc_default_handler                    0x000345b0   Data           0  rom_symdef.txt ABSOLUTE
    gattm_default_state                      0x00034604   Data           0  rom_symdef.txt ABSOLUTE
    gattm_state_handler                      0x00034614   Data           0  rom_symdef.txt ABSOLUTE
    gattm_default_handler                    0x00034624   Data           0  rom_symdef.txt ABSOLUTE
    l2cc_default_state                       0x0003463c   Data           0  rom_symdef.txt ABSOLUTE
    l2cc_state_handler                       0x00034654   Data           0  rom_symdef.txt ABSOLUTE
    l2cc_default_handler                     0x0003466c   Data           0  rom_symdef.txt ABSOLUTE
    l2cm_default_state                       0x00034684   Data           0  rom_symdef.txt ABSOLUTE
    l2cm_state_handler                       0x0003468c   Data           0  rom_symdef.txt ABSOLUTE
    l2cm_default_handler                     0x00034694   Data           0  rom_symdef.txt ABSOLUTE
    smpc_default_state                       0x000346c8   Data           0  rom_symdef.txt ABSOLUTE
    smpc_state_handler                       0x00034760   Data           0  rom_symdef.txt ABSOLUTE
    smpc_default_handler                     0x00034780   Data           0  rom_symdef.txt ABSOLUTE
    smpm_default_state                       0x00034798   Data           0  rom_symdef.txt ABSOLUTE
    smpm_state_handler                       0x000347d0   Data           0  rom_symdef.txt ABSOLUTE
    smpm_default_handler                     0x000347e0   Data           0  rom_symdef.txt ABSOLUTE
    gapc_default_state                       0x000347f8   Data           0  rom_symdef.txt ABSOLUTE
    gapc_state_handler                       0x00034910   Data           0  rom_symdef.txt ABSOLUTE
    gapc_default_handler                     0x00034928   Data           0  rom_symdef.txt ABSOLUTE
    gapm_default_state                       0x000349ec   Data           0  rom_symdef.txt ABSOLUTE
    gapm_state_handler                       0x00034b94   Data           0  rom_symdef.txt ABSOLUTE
    gapm_default_handler                     0x00034bbc   Data           0  rom_symdef.txt ABSOLUTE
    smpc_construct_pdu                       0x00034ce8   Data           0  rom_symdef.txt ABSOLUTE
    smpc_recv_pdu                            0x00034d18   Data           0  rom_symdef.txt ABSOLUTE
    dummy                                    0x00080000   Data           0  rom_symdef.txt ABSOLUTE
    sleep_env                                0x00080254   Data           0  rom_symdef.txt ABSOLUTE
    iq_trim_bias_ctrl1_reg                   0x00080256   Data           0  rom_symdef.txt ABSOLUTE
    co_buf_env                               0x00080258   Data           0  rom_symdef.txt ABSOLUTE
    dbg_state                                0x00080348   Data           0  rom_symdef.txt ABSOLUTE
    iq_trim_rf_mixer_ctrl1_reg               0x0008034a   Data           0  rom_symdef.txt ABSOLUTE
    llc_env                                  0x0008034c   Data           0  rom_symdef.txt ABSOLUTE
    llc_state                                0x00080364   Data           0  rom_symdef.txt ABSOLUTE
    ret_winsize_var                          0x0008036a   Data           0  rom_symdef.txt ABSOLUTE
    lld_evt_env                              0x0008036c   Data           0  rom_symdef.txt ABSOLUTE
    lld_sleep_env                            0x0008038c   Data           0  rom_symdef.txt ABSOLUTE
    llm_le_env                               0x00080390   Data           0  rom_symdef.txt ABSOLUTE
    llm_le_env_lpus                          0x000803e4   Data           0  rom_symdef.txt ABSOLUTE
    llm_bt_env                               0x0008042a   Data           0  rom_symdef.txt ABSOLUTE
    llm_state                                0x00080432   Data           0  rom_symdef.txt ABSOLUTE
    uart_env                                 0x00080434   Data           0  rom_symdef.txt ABSOLUTE
    vcocal_ctrl_reg_val                      0x00080452   Data           0  rom_symdef.txt ABSOLUTE
    last_temp_count                          0x00080478   Data           0  rom_symdef.txt ABSOLUTE
    last_temp_time                           0x0008047c   Data           0  rom_symdef.txt ABSOLUTE
    gtl_env                                  0x00080480   Data           0  rom_symdef.txt ABSOLUTE
    gtl_state                                0x000804a4   Data           0  rom_symdef.txt ABSOLUTE
    attc_state                               0x000804a5   Data           0  rom_symdef.txt ABSOLUTE
    attm_env                                 0x000804ac   Data           0  rom_symdef.txt ABSOLUTE
    attm_state                               0x000804b4   Data           0  rom_symdef.txt ABSOLUTE
    atts_env                                 0x000804b8   Data           0  rom_symdef.txt ABSOLUTE
    atts_state                               0x000804d0   Data           0  rom_symdef.txt ABSOLUTE
    gattc_env                                0x000804d8   Data           0  rom_symdef.txt ABSOLUTE
    gattc_state                              0x000804f0   Data           0  rom_symdef.txt ABSOLUTE
    gattm_env                                0x000804f6   Data           0  rom_symdef.txt ABSOLUTE
    gattm_state                              0x000804fc   Data           0  rom_symdef.txt ABSOLUTE
    l2cc_env                                 0x00080500   Data           0  rom_symdef.txt ABSOLUTE
    l2cc_state                               0x00080518   Data           0  rom_symdef.txt ABSOLUTE
    l2cm_env                                 0x0008051e   Data           0  rom_symdef.txt ABSOLUTE
    l2cm_state                               0x00080524   Data           0  rom_symdef.txt ABSOLUTE
    smpc_env                                 0x00080528   Data           0  rom_symdef.txt ABSOLUTE
    smpc_state                               0x00080540   Data           0  rom_symdef.txt ABSOLUTE
    smpm_env                                 0x00080548   Data           0  rom_symdef.txt ABSOLUTE
    smpm_state                               0x00080550   Data           0  rom_symdef.txt ABSOLUTE
    gapc_env                                 0x00080554   Data           0  rom_symdef.txt ABSOLUTE
    gapc_state                               0x0008056c   Data           0  rom_symdef.txt ABSOLUTE
    gap_cfg_table                            0x00080574   Data           0  rom_symdef.txt ABSOLUTE
    gapm_env                                 0x00080578   Data           0  rom_symdef.txt ABSOLUTE
    gapm_state                               0x000805a4   Data           0  rom_symdef.txt ABSOLUTE
    ke_env                                   0x000805a8   Data           0  rom_symdef.txt ABSOLUTE
    ke_task_env                              0x00080604   Data           0  rom_symdef.txt ABSOLUTE
    nvds_data_ptr                            0x000806c0   Data           0  rom_symdef.txt ABSOLUTE
    func_check_mem_flag                      0x000806c4   Data           0  rom_symdef.txt ABSOLUTE
    ke_mem_heaps_used                        0x000806c5   Data           0  rom_symdef.txt ABSOLUTE
    rwip_env                                 0x000806c6   Data           0  rom_symdef.txt ABSOLUTE
    ble_reg_save                             0x000806cc   Data           0  rom_symdef.txt ABSOLUTE
    rwip_rf                                  0x0008071c   Data           0  rom_symdef.txt ABSOLUTE
    rwip_heap_db_ret                         0x00080768   Data        1536  jump_table.o(heap_db_area)
    rwip_heap_env_ret                        0x00080d68   Data         668  jump_table.o(heap_env_area)
    rwip_heap_msg_ret                        0x00081004   Data        2060  jump_table.o(heap_msg_area)
    descript                                 0x00082a20   Data        1502  arch_main.o(BLE_exchange_memory)
    __Vectors                                0x20000000   Data           4  boot_vectors.o(RESET)
    __Vectors_End                            0x200000a0   Data           0  boot_vectors.o(RESET)
    jump_table_base                          0x20000160   Data         352  jump_table.o(jump_table_mem_area)
    gap_timeout_table                        0x200002c0   Data         100  gapm.o(timeout_table_area)
    nvds_data_storage                        0x20000340   Data         164  nvds.o(nvds_data_storage_area)
    __main                                   0x20000441   Thumb Code     0  entry.o(.ARM.Collect$$$$00000000)
    _main_stk                                0x20000441   Thumb Code     0  entry2.o(.ARM.Collect$$$$00000001)
    _main_scatterload                        0x20000445   Thumb Code     0  entry5.o(.ARM.Collect$$$$00000004)
    __main_after_scatterload                 0x20000449   Thumb Code     0  entry5.o(.ARM.Collect$$$$00000004)
    _main_clock                              0x20000449   Thumb Code     0  entry7b.o(.ARM.Collect$$$$00000008)
    _main_cpp_init                           0x20000449   Thumb Code     0  entry8b.o(.ARM.Collect$$$$0000000A)
    _main_init                               0x20000449   Thumb Code     0  entry9a.o(.ARM.Collect$$$$0000000B)
    __rt_final_cpp                           0x20000451   Thumb Code     0  entry10a.o(.ARM.Collect$$$$0000000D)
    __rt_final_exit                          0x20000451   Thumb Code     0  entry11a.o(.ARM.Collect$$$$0000000F)
    SystemInit                               0x20000455   Thumb Code    62  system_armcm0.o(.text)
    Reset_Handler                            0x200004a5   Thumb Code     8  boot_vectors.o(.text)
    PendSV_Handler                           0x200004f5   Thumb Code     2  boot_vectors.o(.text)
    ADC_Handler                              0x200004f9   Thumb Code     0  boot_vectors.o(.text)
    I2C_Handler                              0x200004f9   Thumb Code     0  boot_vectors.o(.text)
    KEYBRD_Handler                           0x200004f9   Thumb Code     0  boot_vectors.o(.text)
    RFCAL_Handler                            0x200004f9   Thumb Code     0  boot_vectors.o(.text)
    SPI_Handler                              0x200004f9   Thumb Code     0  boot_vectors.o(.text)
    SWTIM_Handler                            0x200004f9   Thumb Code     0  boot_vectors.o(.text)
    UART2_Handler                            0x200004f9   Thumb Code     0  boot_vectors.o(.text)
    HardFault_HandlerC                       0x20000511   Thumb Code    14  hardfault_handler.o(.text)
    NMI_HandlerC                             0x20000529   Thumb Code    50  nmi_handler.o(.text)
    custom_nvds_get_func                     0x20000561   Thumb Code   106  nvds.o(.text)
    nvds_read_bdaddr_from_otp                0x200005cb   Thumb Code    50  nvds.o(.text)
    nvds_read_bdaddr_from_da14583_flash      0x200005fd   Thumb Code   218  nvds.o(.text)
    main_func                                0x20000769   Thumb Code   144  arch_main.o(.text)
    dummyf                                   0x20000931   Thumb Code     2  jump_table.o(.text)
    arch_disable_sleep                       0x20000935   Thumb Code    26  arch_sleep.o(.text)
    arch_set_extended_sleep                  0x2000094f   Thumb Code    26  arch_sleep.o(.text)
    arch_set_deep_sleep                      0x20000969   Thumb Code    28  arch_sleep.o(.text)
    arch_set_sleep_mode                      0x20000985   Thumb Code    20  arch_sleep.o(.text)
    arch_get_sleep_mode                      0x20000999   Thumb Code    26  arch_sleep.o(.text)
    arch_ble_ext_wakeup_get                  0x200009b3   Thumb Code     6  arch_sleep.o(.text)
    arch_ble_force_wakeup                    0x200009b9   Thumb Code    46  arch_sleep.o(.text)
    set_sleep_delay                          0x20000abd   Thumb Code    10  arch_system.o(.text)
    get_rc16m_count_func                     0x20000ac7   Thumb Code    28  arch_system.o(.text)
    conditionally_run_radio_cals             0x20000ae3   Thumb Code   110  arch_system.o(.text)
    lld_sleep_us_2_lpcycles_sel_func         0x20000b51   Thumb Code    10  arch_system.o(.text)
    lld_sleep_lpcycles_2_us_sel_func         0x20000b5b   Thumb Code    10  arch_system.o(.text)
    uart_flow_off_func                       0x20000b65   Thumb Code    58  arch_system.o(.text)
    init_rand_seed_from_trng                 0x20000b9f   Thumb Code    16  arch_system.o(.text)
    check_sys_startup_period                 0x20000baf   Thumb Code    92  arch_system.o(.text)
    app_use_lower_clocks_check               0x20000c0b   Thumb Code     4  arch_system.o(.text)
    lld_sleep_init_func                      0x20000c0f   Thumb Code    26  arch_system.o(.text)
    system_init                              0x20000c29   Thumb Code   200  arch_system.o(.text)
    wrap_platform_reset                      0x20000cf1   Thumb Code     8  arch_system.o(.text)
    patch_llm_task                           0x20000dc3   Thumb Code    36  arch_patch.o(.text)
    SVC_Handler_c                            0x20000dfd   Thumb Code    24  arch_patch.o(.text)
    patch_func                               0x20000e15   Thumb Code    88  arch_patch.o(.text)
    l2cc_pdu_recv_ind_handler                0x20000ec1   Thumb Code   232  atts_task.obj(.text)
    my_llc_con_update_req_ind                0x20000fad   Thumb Code   100  ch_map.obj(.text)
    my_llc_ch_map_req_ind                    0x20001011   Thumb Code    84  ch_map.obj(.text)
    patched_gapm_adv_op_sanity               0x20001071   Thumb Code   208  gapm_util.obj(.text)
    ke_task_init_func                        0x20001283   Thumb Code    20  ke_task.obj(.text)
    my_smpc_check_param                      0x200012a9   Thumb Code   122  smpc.obj(.text)
    smpc_send_pairing_req_ind                0x20001323   Thumb Code   190  smpc.obj(.text)
    smpc_check_pairing_feat                  0x200013e1   Thumb Code    26  smpc.obj(.text)
    smpc_pairing_cfm_handler                 0x20001405   Thumb Code   528  smpc_task.obj(.text)
    my_llcp_con_up_req_handler               0x20001637   Thumb Code    86  llc.obj(.text)
    my_llc_start_enc_rsp_ind                 0x20001743   Thumb Code   158  llc.obj(.text)
    patch_llc_task                           0x20001859   Thumb Code    36  llc.obj(.text)
    syscntl_use_lowest_amba_clocks           0x20001895   Thumb Code    22  syscntl.o(.text)
    syscntl_use_highest_amba_clocks          0x200018ab   Thumb Code    22  syscntl.o(.text)
    GPIO_init                                0x200018c1   Thumb Code     2  gpio.o(.text)
    GPIO_SetPinFunction                      0x200018c3   Thumb Code    24  gpio.o(.text)
    GPIO_SetInactive                         0x200018db   Thumb Code    20  gpio.o(.text)
    GPIO_SetActive                           0x200018ef   Thumb Code    20  gpio.o(.text)
    GPIO_ConfigurePin                        0x20001903   Thumb Code    38  gpio.o(.text)
    GPIO_GetPinStatus                        0x20001929   Thumb Code    26  gpio.o(.text)
    GPIO_EnableIRQ                           0x20001943   Thumb Code   224  gpio.o(.text)
    GPIO_ResetIRQ                            0x20001a23   Thumb Code    32  gpio.o(.text)
    GPIO_RegisterCallback                    0x20001a43   Thumb Code    20  gpio.o(.text)
    GPIOn_Handler                            0x20001a57   Thumb Code    48  gpio.o(.text)
    GPIO0_Handler                            0x20001a87   Thumb Code     4  gpio.o(.text)
    GPIO1_Handler                            0x20001a8b   Thumb Code     4  gpio.o(.text)
    GPIO2_Handler                            0x20001a8f   Thumb Code     4  gpio.o(.text)
    GPIO3_Handler                            0x20001a93   Thumb Code     4  gpio.o(.text)
    GPIO4_Handler                            0x20001a97   Thumb Code     4  gpio.o(.text)
    batt_cal_cr1225                          0x20001add   Thumb Code    32  battery.o(.text)
    batt_cal_aaa                             0x20001afd   Thumb Code    60  battery.o(.text)
    battery_get_lvl                          0x20001b39   Thumb Code    64  battery.o(.text)
    adc_init                                 0x20001b81   Thumb Code    28  adc.o(.text)
    adc_enable_channel                       0x20001b9d   Thumb Code    20  adc.o(.text)
    adc_get_sample                           0x20001bb1   Thumb Code    30  adc.o(.text)
    adc_usDelay                              0x20001bcf   Thumb Code    30  adc.o(.text)
    adc_get_vbat_sample                      0x20001bed   Thumb Code    86  adc.o(.text)
    adc_calibrate                            0x20001c43   Thumb Code    76  adc.o(.text)
    rfpt_init                                0x20001ca1   Thumb Code    76  trng.o(.text)
    trng_init                                0x20001ced   Thumb Code    96  trng.o(.text)
    trng_get_raw_data                        0x20001d4d   Thumb Code    18  trng.o(.text)
    trng_acquire                             0x20001d5f   Thumb Code   222  trng.o(.text)
    SysTick_Handler                          0x20001e5d   Thumb Code    12  systick.o(.text)
    spi_cs_low                               0x20001e6d   Thumb Code    14  spi.o(.text)
    spi_cs_high                              0x20001e7b   Thumb Code    14  spi.o(.text)
    spi_init                                 0x20001e89   Thumb Code   138  spi.o(.text)
    spi_set_bitmode                          0x20001f13   Thumb Code    34  spi.o(.text)
    spi_release                              0x20001f35   Thumb Code    38  spi.o(.text)
    spi_access                               0x20001f5b   Thumb Code    46  spi.o(.text)
    spi_transaction                          0x20001f89   Thumb Code    24  spi.o(.text)
    WKUP_QUADEC_Handler                      0x20001fa9   Thumb Code   106  wkupct_quadec.o(.text)
    spi_flash_init                           0x20002021   Thumb Code     8  spi_flash.o(.text)
    spi_flash_read_status_reg                0x20002029   Thumb Code    20  spi_flash.o(.text)
    spi_flash_wait_till_ready                0x2000203d   Thumb Code    26  spi_flash.o(.text)
    spi_read_flash_jedec_id                  0x20002057   Thumb Code    60  spi_flash.o(.text)
    spi_flash_auto_detect                    0x20002093   Thumb Code    76  spi_flash.o(.text)
    spi_flash_set_write_enable               0x200020df   Thumb Code    60  spi_flash.o(.text)
    spi_flash_read_data                      0x2000211b   Thumb Code    86  spi_flash.o(.text)
    spi_flash_page_program                   0x20002171   Thumb Code    90  spi_flash.o(.text)
    spi_flash_block_erase                    0x200021cb   Thumb Code    40  spi_flash.o(.text)
    spi_read_flash_memory_man_and_dev_id     0x200021f3   Thumb Code    52  spi_flash.o(.text)
    spi_flash_write_data                     0x20002227   Thumb Code   110  spi_flash.o(.text)
    spi_flash_power_down                     0x20002295   Thumb Code    24  spi_flash.o(.text)
    spi_flash_release_from_power_down        0x200022ad   Thumb Code    18  spi_flash.o(.text)
    spi_flash_enable                         0x200022bf   Thumb Code    40  spi_flash.o(.text)
    iq_trim_from_otp                         0x200022f5   Thumb Code    54  rf_580.o(.text)
    rf_reg_rd                                0x2000232b   Thumb Code     4  rf_580.o(.text)
    rf_reg_wr                                0x2000232f   Thumb Code     2  rf_580.o(.text)
    rf_reset                                 0x20002331   Thumb Code     2  rf_580.o(.text)
    rf_force_agc_enable                      0x20002333   Thumb Code     2  rf_580.o(.text)
    rf_txpwr_dbm_get                         0x20002335   Thumb Code     4  rf_580.o(.text)
    rf_regs                                  0x20002349   Thumb Code   226  rf_580.o(.text)
    rf_init_func                             0x2000242f   Thumb Code   138  rf_580.o(.text)
    rf_reinit_func                           0x200024b9   Thumb Code   120  rf_580.o(.text)
    lld_sleep_compensate_func_patched        0x200025e1   Thumb Code    46  rwble.o(.text)
    skip_slave_latency_patch                 0x2000260f   Thumb Code   210  rwble.o(.text)
    power_up                                 0x200026e1   Thumb Code    70  rwble.o(.text)
    BLE_WAKEUP_LP_Handler                    0x20002727   Thumb Code    98  rwble.o(.text)
    BLE_SLP_Handler                          0x20002789   Thumb Code   116  rwble.o(.text)
    BLE_CSCNT_Handler                        0x200027fd   Thumb Code    18  rwble.o(.text)
    BLE_FINETGTIM_Handler                    0x2000280f   Thumb Code    18  rwble.o(.text)
    BLE_RX_Handler                           0x20002821   Thumb Code    14  rwble.o(.text)
    BLE_EVENT_Handler                        0x2000282f   Thumb Code    64  rwble.o(.text)
    BLE_RF_DIAG_Handler                      0x2000286f   Thumb Code    82  rwble.o(.text)
    rwip_sleep                               0x2000290d   Thumb Code   366  rwip.o(.text)
    attm_svc_create_db_128                   0x20002a9d   Thumb Code   272  attm_db_128.o(.text)
    prf_pack_char_pres_fmt                   0x20002bb1   Thumb Code    30  prf_utils.o(.text)
    prf_server_error_ind_send                0x20002bcf   Thumb Code    44  prf_utils.o(.text)
    prf_server_send_event                    0x20002bfb   Thumb Code    42  prf_utils.o(.text)
    prf_init_func                            0x20002c25   Thumb Code    20  prf_utils.o(.text)
    prf_cleanup_func                         0x20002c39   Thumb Code    98  prf_utils.o(.text)
    bass_init                                0x20002ca1   Thumb Code    28  bass.o(.text)
    bass_batt_level_upd_cfm_send             0x20002cbd   Thumb Code    38  bass.o(.text)
    bass_disable                             0x20002ce3   Thumb Code   114  bass.o(.text)
    spotar_init                              0x20003075   Thumb Code    28  spotar.o(.text)
    spotar_disable                           0x20003091   Thumb Code    42  spotar.o(.text)
    diss_init                                0x20003525   Thumb Code    28  diss.o(.text)
    diss_compute_cfg_flag                    0x20003541   Thumb Code    38  diss.o(.text)
    diss_check_val_len                       0x20003567   Thumb Code    42  diss.o(.text)
    diss_disable                             0x20003591   Thumb Code    42  diss.o(.text)
    default_advertise_operation              0x200036c5   Thumb Code    18  app_default_handlers.o(.text)
    default_app_on_init                      0x200036d7   Thumb Code    26  app_default_handlers.o(.text)
    default_app_on_connection                0x200036f1   Thumb Code    30  app_default_handlers.o(.text)
    default_app_on_disconnect                0x2000370f   Thumb Code     2  app_default_handlers.o(.text)
    default_app_on_set_dev_config_complete   0x20003711   Thumb Code    16  app_default_handlers.o(.text)
    default_app_on_adv_undirect_complete     0x20003721   Thumb Code     2  app_default_handlers.o(.text)
    default_app_on_db_init_complete          0x20003723   Thumb Code     2  app_default_handlers.o(.text)
    app_prf_enable                           0x2000374d   Thumb Code    98  app.o(.text)
    app_init                                 0x200039d5   Thumb Code    80  app.o(.text)
    app_easy_gap_confirm                     0x20003a25   Thumb Code    36  app.o(.text)
    app_easy_gap_undirected_advertise_start  0x20003a49   Thumb Code    26  app.o(.text)
    app_easy_gap_param_update_start          0x20003a63   Thumb Code    32  app.o(.text)
    app_timer_set                            0x20003a83   Thumb Code    24  app.o(.text)
    app_db_init_start                        0x20003a9b   Thumb Code    16  app.o(.text)
    app_db_init                              0x20003aab   Thumb Code     2  app.o(.text)
    app_easy_gap_dev_configure               0x20003aad   Thumb Code    18  app.o(.text)
    get_user_prf_srv_perm                    0x20003abf   Thumb Code    34  app.o(.text)
    prf_init_srv_perm                        0x20003ae1   Thumb Code    30  app.o(.text)
    app_gap_process_handler                  0x20003b41   Thumb Code    24  app_task.o(.text)
    gapm_device_ready_ind_handler            0x20003b59   Thumb Code    44  app_task.o(.text)
    gapm_cmp_evt_handler                     0x20003b85   Thumb Code   146  app_task.o(.text)
    gapc_connection_req_ind_handler          0x20003c17   Thumb Code    98  app_task.o(.text)
    gapc_cmp_evt_handler                     0x20003c79   Thumb Code    80  app_task.o(.text)
    gapc_disconnect_ind_handler              0x20003cc9   Thumb Code    40  app_task.o(.text)
    app_module_init_cmp_evt_handler          0x20003cf1   Thumb Code    46  app_task.o(.text)
    gapm_adv_report_ind_handler              0x20003d1f   Thumb Code     4  app_task.o(.text)
    app_entry_point_handler                  0x20003d35   Thumb Code    62  app_entry_point.o(.text)
    app_std_process_event                    0x20003d73   Thumb Code    64  app_entry_point.o(.text)
    app_check_BLE_active                     0x20003dbd   Thumb Code    38  app_msg_utils.o(.text)
    app_msg_utils_api_process_handler        0x20003de5   Thumb Code    46  app_easy_msg_utils.o(.text)
    app_timer_api_process_handler            0x20003e31   Thumb Code   128  app_easy_timer.o(.text)
    app_easy_timer_cancel                    0x20003eb1   Thumb Code    64  app_easy_timer.o(.text)
    app_easy_timer                           0x20003ef1   Thumb Code    92  app_easy_timer.o(.text)
    app_bass_create_db                       0x20003f65   Thumb Code    30  app_bass.o(.text)
    app_batt_init                            0x20003f83   Thumb Code    14  app_bass.o(.text)
    app_batt_config                          0x20003f91   Thumb Code    14  app_bass.o(.text)
    app_bass_enable                          0x20003f9f   Thumb Code    86  app_bass.o(.text)
    app_batt_alert_start                     0x20003ff5   Thumb Code    36  app_bass.o(.text)
    app_batt_set_level                       0x20004019   Thumb Code    36  app_bass.o(.text)
    app_batt_lvl                             0x2000403d   Thumb Code   106  app_bass.o(.text)
    app_batt_poll_stop                       0x200040a7   Thumb Code    14  app_bass.o(.text)
    app_bass_process_handler                 0x200040c5   Thumb Code    24  app_bass_task.o(.text)
    batt_create_db_cfm_handler               0x200040dd   Thumb Code    28  app_bass_task.o(.text)
    batt_level_upd_cfm_handler               0x200040f9   Thumb Code     4  app_bass_task.o(.text)
    batt_disable_handler                     0x200040fd   Thumb Code    10  app_bass_task.o(.text)
    batt_level_ntf_cfg_ind_handler           0x20004107   Thumb Code    10  app_bass_task.o(.text)
    app_batt_timer_handler                   0x20004111   Thumb Code    24  app_bass_task.o(.text)
    app_batt_alert_timer_handler             0x20004129   Thumb Code    66  app_bass_task.o(.text)
    app_spotar_init                          0x20004189   Thumb Code    24  app_spotar.o(.text)
    app_spotar_reset                         0x200041a1   Thumb Code    12  app_spotar.o(.text)
    app_spotar_create_db                     0x200041ad   Thumb Code    24  app_spotar.o(.text)
    app_spotar_enable                        0x200041c5   Thumb Code    48  app_spotar.o(.text)
    spotar_send_status_update_req            0x200041f5   Thumb Code    36  app_spotar.o(.text)
    app_spotar_stop                          0x20004219   Thumb Code    26  app_spotar.o(.text)
    app_spi_flash_init                       0x20004233   Thumb Code    66  app_spotar.o(.text)
    app_spotar_spi_config                    0x20004275   Thumb Code   132  app_spotar.o(.text)
    app_set_image_valid_flag                 0x200042f9   Thumb Code    54  app_spotar.o(.text)
    app_spotar_start                         0x2000432f   Thumb Code    40  app_spotar.o(.text)
    app_spotar_read_mem                      0x20004357   Thumb Code   204  app_spotar.o(.text)
    spotar_send_mem_info_update_req          0x20004423   Thumb Code    28  app_spotar.o(.text)
    app_spotar_pd_hdlr                       0x2000443f   Thumb Code   226  app_spotar.o(.text)
    app_erase_flash_sectors                  0x20004521   Thumb Code    58  app_spotar.o(.text)
    app_get_image_id                         0x2000455b   Thumb Code    46  app_spotar.o(.text)
    app_find_old_img                         0x20004589   Thumb Code    36  app_spotar.o(.text)
    app_read_ext_mem                         0x200045ad   Thumb Code    24  app_spotar.o(.text)
    app_read_image_headers                   0x200045c5   Thumb Code   518  app_spotar.o(.text)
    app_spotar_img_hdlr                      0x200047cb   Thumb Code   160  app_spotar.o(.text)
    app_spota_process_handler                0x20004875   Thumb Code    24  app_spotar_task.o(.text)
    spotar_create_db_cfm_handler             0x2000488d   Thumb Code    38  app_spotar_task.o(.text)
    spotar_patch_data_ind_handler            0x200048b3   Thumb Code   160  app_spotar_task.o(.text)
    spotar_patch_mem_dev_ind_handler         0x20004953   Thumb Code    26  app_spotar_task.o(.text)
    spotar_gpio_map_ind_handler              0x2000496d   Thumb Code    58  app_spotar_task.o(.text)
    spotar_patch_len_ind_handler             0x200049a7   Thumb Code    74  app_spotar_task.o(.text)
    app_dis_init                             0x20004a01   Thumb Code     2  app_diss.o(.text)
    app_diss_create_db                       0x20004a03   Thumb Code    26  app_diss.o(.text)
    app_diss_enable                          0x20004a1d   Thumb Code    40  app_diss.o(.text)
    app_dis_process_handler                  0x20004a49   Thumb Code    24  app_diss_task.o(.text)
    diss_create_db_cfm_handler               0x20004a61   Thumb Code   288  app_diss_task.o(.text)
    diss_disable_ind_handler                 0x20004b81   Thumb Code     4  app_diss_task.o(.text)
    butcb0                                   0x20004bad   Thumb Code   474  user_periph_setup.o(.text)
    afeon                                    0x20004d87   Thumb Code    90  user_periph_setup.o(.text)
    system_on                                0x20004de1   Thumb Code   302  user_periph_setup.o(.text)
    sleepcb                                  0x20004f0f   Thumb Code   686  user_periph_setup.o(.text)
    set_pad_functions                        0x200051bd   Thumb Code   390  user_periph_setup.o(.text)
    system_off                               0x20005343   Thumb Code   116  user_periph_setup.o(.text)
    butcb1                                   0x200053b7   Thumb Code   590  user_periph_setup.o(.text)
    periph_init                              0x20005605   Thumb Code    50  user_periph_setup.o(.text)
    ADS1292R_RDATA                           0x2000565d   Thumb Code   102  ads1292.o(.text)
    ADS1292R_WREG_multi                      0x200056c3   Thumb Code    48  ads1292.o(.text)
    ADS1292R_sendmsg                         0x200056f3   Thumb Code    28  ads1292.o(.text)
    AFE4400_RDATA                            0x20005715   Thumb Code    72  afe4400.o(.text)
    AFE4400_WREG                             0x2000575d   Thumb Code    52  afe4400.o(.text)
    AFE44x0_Default_Reg_Init                 0x20005791   Thumb Code    26  afe4400.o(.text)
    iir_Notch_60Hz_Sample_500Hz              0x200057b1   Thumb Code   124  dsp.o(.text)
    getMax                                   0x20005835   Thumb Code    58  ecgtohr.o(.text)
    getRms                                   0x2000586f   Thumb Code    52  ecgtohr.o(.text)
    getRRI                                   0x200058a3   Thumb Code   364  ecgtohr.o(.text)
    sps_server_init                          0x20005a39   Thumb Code    28  sps_server.o(.text)
    sps_server_confirm_data_tx               0x20005a55   Thumb Code    38  sps_server.o(.text)
    sps_server_indicate_data_rx              0x20005a7b   Thumb Code    54  sps_server.o(.text)
    sps_server_indicate_tx_flow_ctrl         0x20005ab1   Thumb Code    40  sps_server.o(.text)
    user_send_ble                            0x20005d19   Thumb Code    38  user_sps_device.o(.text)
    user_process_catch                       0x20005d3f   Thumb Code    14  user_sps_device.o(.text)
    user_on_connection                       0x20005d4d   Thumb Code   162  user_sps_device.o(.text)
    user_on_disconnect                       0x20005def   Thumb Code    20  user_sps_device.o(.text)
    user_on_connect_failed                   0x20005e03   Thumb Code    16  user_sps_device.o(.text)
    user_on_init                             0x20005e13   Thumb Code     8  user_sps_device.o(.text)
    on_spotar_status_change                  0x20005e1b   Thumb Code    36  user_sps_device.o(.text)
    user_sps_db_create                       0x20005e61   Thumb Code    24  user_spss.o(.text)
    user_sps_enable                          0x20005e79   Thumb Code    28  user_spss.o(.text)
    user_spss_process_handler                0x20005e99   Thumb Code    24  user_spss_task.o(.text)
    user_sps_create_db_cfm_handler           0x20005eb1   Thumb Code    38  user_spss_task.o(.text)
    user_sps_server_enable_cfm_handler       0x20005ed7   Thumb Code     4  user_spss_task.o(.text)
    user_sps_server_data_tx_cfm_handler      0x20005edb   Thumb Code     4  user_spss_task.o(.text)
    user_sps_server_data_rx_ind_handler      0x20005edf   Thumb Code    44  user_spss_task.o(.text)
    user_sps_server_tx_flow_ctrl_ind_handler 0x20005f0b   Thumb Code     4  user_spss_task.o(.text)
    user_sps_server_error_ind_handler        0x20005f0f   Thumb Code    12  user_spss_task.o(.text)
    __aeabi_fadd                             0x20005f29   Thumb Code   162  fadd.o(.text)
    __aeabi_fsub                             0x20005fcb   Thumb Code     8  fadd.o(.text)
    __aeabi_frsub                            0x20005fd3   Thumb Code     8  fadd.o(.text)
    __aeabi_fmul                             0x20005fdb   Thumb Code   122  fmul.o(.text)
    __aeabi_fdiv                             0x20006055   Thumb Code   124  fdiv.o(.text)
    __aeabi_dadd                             0x200060d1   Thumb Code   328  dadd.o(.text)
    __aeabi_dsub                             0x20006219   Thumb Code    12  dadd.o(.text)
    __aeabi_drsub                            0x20006225   Thumb Code    12  dadd.o(.text)
    __aeabi_ddiv                             0x20006235   Thumb Code   234  ddiv.o(.text)
    __aeabi_i2f                              0x20006325   Thumb Code    22  fflti.o(.text)
    __aeabi_f2iz                             0x2000633b   Thumb Code    50  ffixi.o(.text)
    __aeabi_f2d                              0x2000636d   Thumb Code    40  f2d.o(.text)
    __aeabi_cdrcmple                         0x20006395   Thumb Code    38  cdrcmple.o(.text)
    __aeabi_d2f                              0x200063bd   Thumb Code    56  d2f.o(.text)
    __aeabi_cfrcmple                         0x200063f5   Thumb Code    20  cfrcmple.o(.text)
    __aeabi_lasr                             0x20006409   Thumb Code    38  llsshr.o(.text)
    _ll_sshift_r                             0x20006409   Thumb Code     0  llsshr.o(.text)
    _float_round                             0x2000642f   Thumb Code    16  fepilogue.o(.text)
    _float_epilogue                          0x2000643f   Thumb Code   114  fepilogue.o(.text)
    _dsqrt                                   0x200064b1   Thumb Code   162  dsqrt.o(.text)
    __scatterload                            0x20006555   Thumb Code    28  init.o(.text)
    __scatterload_rt2                        0x20006555   Thumb Code     0  init.o(.text)
    Long Thumb to Thumb Veneer to memcmp     0x20006579   Thumb Code    12  anon$$obj.o(Veneer$$Code)
    Long Thumb to Thumb Veneer to __aeabi_memcpy 0x20006585   Thumb Code    12  anon$$obj.o(Veneer$$Code)
    Long Thumb to Thumb Veneer to nvds_get_func 0x20006591   Thumb Code    12  anon$$obj.o(Veneer$$Code)
    Long Thumb to Thumb Veneer to __aeabi_memclr4 0x2000659d   Thumb Code    12  anon$$obj.o(Veneer$$Code)
    Long Thumb to Thumb Veneer to lld_sleep_check 0x200065a9   Thumb Code    12  anon$$obj.o(Veneer$$Code)
    Long Thumb to Thumb Veneer to rwip_prevent_sleep_get 0x200065b5   Thumb Code    12  anon$$obj.o(Veneer$$Code)
    Long Thumb to Thumb Veneer to ke_event_get 0x200065c1   Thumb Code    12  anon$$obj.o(Veneer$$Code)
    Long Thumb to Thumb Veneer to rwip_schedule 0x200065cd   Thumb Code    12  anon$$obj.o(Veneer$$Code)
    Long Thumb to Thumb Veneer to func_check_mem 0x200065d9   Thumb Code    12  anon$$obj.o(Veneer$$Code)
    Long Thumb to Thumb Veneer to test_rxdone 0x200065e5   Thumb Code    12  anon$$obj.o(Veneer$$Code)
    Long Thumb to Thumb Veneer to ke_mem_is_empty 0x200065f1   Thumb Code    12  anon$$obj.o(Veneer$$Code)
    Long Thumb to Thumb Veneer to rwip_wakeup_delay_set 0x200065fd   Thumb Code    12  anon$$obj.o(Veneer$$Code)
    Long Thumb to Thumb Veneer to $Super$$get_rc16m_count_func 0x20006609   Thumb Code    12  anon$$obj.o(Veneer$$Code)
    Long Thumb to Thumb Veneer to get_rc16m_count 0x20006615   Thumb Code    12  anon$$obj.o(Veneer$$Code)
    Long Thumb to Thumb Veneer to pll_vcocal_LUT_InitUpdate 0x20006621   Thumb Code    12  anon$$obj.o(Veneer$$Code)
    Long Thumb to Thumb Veneer to rf_calibration 0x2000662d   Thumb Code    12  anon$$obj.o(Veneer$$Code)
    Long Thumb to Thumb Veneer to lld_sleep_us_2_lpcycles_func 0x20006639   Thumb Code    12  anon$$obj.o(Veneer$$Code)
    Long Thumb to Thumb Veneer to lld_sleep_lpcycles_2_us_func 0x20006645   Thumb Code    12  anon$$obj.o(Veneer$$Code)
    Long Thumb to Thumb Veneer to uart_flow_on 0x20006651   Thumb Code    12  anon$$obj.o(Veneer$$Code)
    Long Thumb to Thumb Veneer to srand      0x2000665d   Thumb Code    12  anon$$obj.o(Veneer$$Code)
    Long Thumb to Thumb Veneer to set_system_clocks 0x20006669   Thumb Code    12  anon$$obj.o(Veneer$$Code)
    Long Thumb to Thumb Veneer to nvds_init  0x20006675   Thumb Code    12  anon$$obj.o(Veneer$$Code)
    Long Thumb to Thumb Veneer to rwip_init  0x20006681   Thumb Code    12  anon$$obj.o(Veneer$$Code)
    Long Thumb to Thumb Veneer to enable_rf_diag_irq 0x2000668d   Thumb Code    12  anon$$obj.o(Veneer$$Code)
    Long Thumb to Thumb Veneer to platform_reset_func 0x20006699   Thumb Code    12  anon$$obj.o(Veneer$$Code)
    Long Thumb to Thumb Veneer to ke_state_get 0x200066a5   Thumb Code    12  anon$$obj.o(Veneer$$Code)
    Long Thumb to Thumb Veneer to __ARM_common_switch8 0x200066b1   Thumb Code    12  anon$$obj.o(Veneer$$Code)
    Long Thumb to Thumb Veneer to TASK_LLM_lld_data_ind_handler 0x200066bd   Thumb Code    12  anon$$obj.o(Veneer$$Code)
    Long Thumb to Thumb Veneer to co_buf_rx_free 0x200066c9   Thumb Code    12  anon$$obj.o(Veneer$$Code)
    Long Thumb to Thumb Veneer to ke_timer_clear 0x200066d5   Thumb Code    12  anon$$obj.o(Veneer$$Code)
    Long Thumb to Thumb Veneer to atts_send_cmd_cmp 0x200066e1   Thumb Code    12  anon$$obj.o(Veneer$$Code)
    Long Thumb to Thumb Veneer to ke_state_set 0x200066ed   Thumb Code    12  anon$$obj.o(Veneer$$Code)
    Long Thumb to Thumb Veneer to atts_mtu_exc_resp 0x200066f9   Thumb Code    12  anon$$obj.o(Veneer$$Code)
    Long Thumb to Thumb Veneer to atts_find_info_resp 0x20006705   Thumb Code    12  anon$$obj.o(Veneer$$Code)
    Long Thumb to Thumb Veneer to atts_find_by_type_resp 0x20006711   Thumb Code    12  anon$$obj.o(Veneer$$Code)
    Long Thumb to Thumb Veneer to atts_read_by_type_resp 0x2000671d   Thumb Code    12  anon$$obj.o(Veneer$$Code)
    Long Thumb to Thumb Veneer to atts_read_by_grp_type_resp 0x20006729   Thumb Code    12  anon$$obj.o(Veneer$$Code)
    Long Thumb to Thumb Veneer to atts_read_resp 0x20006735   Thumb Code    12  anon$$obj.o(Veneer$$Code)
    Long Thumb to Thumb Veneer to atts_read_blob_resp 0x20006741   Thumb Code    12  anon$$obj.o(Veneer$$Code)
    Long Thumb to Thumb Veneer to atts_read_mult_resp 0x2000674d   Thumb Code    12  anon$$obj.o(Veneer$$Code)
    Long Thumb to Thumb Veneer to atts_write_no_resp 0x20006759   Thumb Code    12  anon$$obj.o(Veneer$$Code)
    Long Thumb to Thumb Veneer to atts_write_resp 0x20006765   Thumb Code    12  anon$$obj.o(Veneer$$Code)
    Long Thumb to Thumb Veneer to atts_signed_write_resp 0x20006771   Thumb Code    12  anon$$obj.o(Veneer$$Code)
    Long Thumb to Thumb Veneer to atts_prepare_write_resp 0x2000677d   Thumb Code    12  anon$$obj.o(Veneer$$Code)
    Long Thumb to Thumb Veneer to atts_execute_write_resp 0x20006789   Thumb Code    12  anon$$obj.o(Veneer$$Code)
    Long Thumb to Thumb Veneer to lld_con_update_ind 0x20006795   Thumb Code    12  anon$$obj.o(Veneer$$Code)
    Long Thumb to Thumb Veneer to __aeabi_uidivmod 0x200067a1   Thumb Code    12  anon$$obj.o(Veneer$$Code)
    Long Thumb to Thumb Veneer to llc_util_dicon_procedure 0x200067ad   Thumb Code    12  anon$$obj.o(Veneer$$Code)
    Long Thumb to Thumb Veneer to lld_ch_map_ind 0x200067b9   Thumb Code    12  anon$$obj.o(Veneer$$Code)
    Long Thumb to Thumb Veneer to gapm_get_privacy_flag 0x200067c5   Thumb Code    12  anon$$obj.o(Veneer$$Code)
    Long Thumb to Thumb Veneer to gapm_set_recon_addr 0x200067d1   Thumb Code    12  anon$$obj.o(Veneer$$Code)
    Long Thumb to Thumb Veneer to co_list_pop_front 0x200067dd   Thumb Code    12  anon$$obj.o(Veneer$$Code)
    Long Thumb to Thumb Veneer to ke_task_handler_get 0x200067e9   Thumb Code    12  anon$$obj.o(Veneer$$Code)
    Long Thumb to Thumb Veneer to ke_msg_free 0x200067f5   Thumb Code    12  anon$$obj.o(Veneer$$Code)
    Long Thumb to Thumb Veneer to co_list_push_back 0x20006801   Thumb Code    12  anon$$obj.o(Veneer$$Code)
    Long Thumb to Thumb Veneer to ke_event_clear 0x2000680d   Thumb Code    12  anon$$obj.o(Veneer$$Code)
    Long Thumb to Thumb Veneer to ke_event_callback_set 0x20006819   Thumb Code    12  anon$$obj.o(Veneer$$Code)
    Long Thumb to Thumb Veneer to ke_msg_alloc 0x20006825   Thumb Code    12  anon$$obj.o(Veneer$$Code)
    Long Thumb to Thumb Veneer to gapc_get_enc_keysize 0x20006831   Thumb Code    12  anon$$obj.o(Veneer$$Code)
    Long Thumb to Thumb Veneer to gapc_get_role 0x2000683d   Thumb Code    12  anon$$obj.o(Veneer$$Code)
    Long Thumb to Thumb Veneer to ke_msg_send 0x20006849   Thumb Code    12  anon$$obj.o(Veneer$$Code)
    Long Thumb to Thumb Veneer to smpc_generate_rand 0x20006855   Thumb Code    12  anon$$obj.o(Veneer$$Code)
    Long Thumb to Thumb Veneer to smpc_tkdp_send_continue 0x20006861   Thumb Code    12  anon$$obj.o(Veneer$$Code)
    Long Thumb to Thumb Veneer to smpc_pdu_send 0x2000686d   Thumb Code    12  anon$$obj.o(Veneer$$Code)
    Long Thumb to Thumb Veneer to smpc_tkdp_rcp_start 0x20006879   Thumb Code    12  anon$$obj.o(Veneer$$Code)
    Long Thumb to Thumb Veneer to smpc_pairing_end 0x20006885   Thumb Code    12  anon$$obj.o(Veneer$$Code)
    Long Thumb to Thumb Veneer to smpc_check_max_key_size 0x20006891   Thumb Code    12  anon$$obj.o(Veneer$$Code)
    Long Thumb to Thumb Veneer to smpc_check_key_distrib 0x2000689d   Thumb Code    12  anon$$obj.o(Veneer$$Code)
    Long Thumb to Thumb Veneer to smpc_get_key_sec_prop 0x200068a9   Thumb Code    12  anon$$obj.o(Veneer$$Code)
    Long Thumb to Thumb Veneer to smpc_is_sec_mode_reached 0x200068b5   Thumb Code    12  anon$$obj.o(Veneer$$Code)
    Long Thumb to Thumb Veneer to llc_le_con_update_cmd_handler 0x200068c1   Thumb Code    12  anon$$obj.o(Veneer$$Code)
    Long Thumb to Thumb Veneer to llm_util_get_role 0x200068cd   Thumb Code    12  anon$$obj.o(Veneer$$Code)
    Long Thumb to Thumb Veneer to lld_evt_int_extract 0x200068d9   Thumb Code    12  anon$$obj.o(Veneer$$Code)
    Long Thumb to Thumb Veneer to ke_free    0x200068e5   Thumb Code    12  anon$$obj.o(Veneer$$Code)
    Long Thumb to Thumb Veneer to lld_stop_ind_handler 0x200068f1   Thumb Code    12  anon$$obj.o(Veneer$$Code)
    Long Thumb to Thumb Veneer to ke_timer_set 0x200068fd   Thumb Code    12  anon$$obj.o(Veneer$$Code)
    Long Thumb to Thumb Veneer to llc_start_enc_rsp_pdu_send 0x20006909   Thumb Code    12  anon$$obj.o(Veneer$$Code)
    Long Thumb to Thumb Veneer to llc_common_enc_change_evt_send 0x20006915   Thumb Code    12  anon$$obj.o(Veneer$$Code)
    Long Thumb to Thumb Veneer to __aeabi_idivmod 0x20006921   Thumb Code    12  anon$$obj.o(Veneer$$Code)
    Long Thumb to Thumb Veneer to IffCalibration 0x2000692d   Thumb Code    12  anon$$obj.o(Veneer$$Code)
    Long Thumb to Thumb Veneer to DCoffsetCalibration 0x20006939   Thumb Code    12  anon$$obj.o(Veneer$$Code)
    Long Thumb to Thumb Veneer to ble_regs_pop 0x20006945   Thumb Code    12  anon$$obj.o(Veneer$$Code)
    Long Thumb to Thumb Veneer to rwip_wakeup 0x20006951   Thumb Code    12  anon$$obj.o(Veneer$$Code)
    Long Thumb to Thumb Veneer to rf_workaround_init 0x2000695d   Thumb Code    12  anon$$obj.o(Veneer$$Code)
    Long Thumb to Thumb Veneer to rf_reinit  0x20006969   Thumb Code    12  anon$$obj.o(Veneer$$Code)
    Long Thumb to Thumb Veneer to $Super$$BLE_CSCNT_Handler 0x20006975   Thumb Code    12  anon$$obj.o(Veneer$$Code)
    Long Thumb to Thumb Veneer to lld_evt_rx_isr 0x20006981   Thumb Code    12  anon$$obj.o(Veneer$$Code)
    Long Thumb to Thumb Veneer to lld_evt_end_isr 0x2000698d   Thumb Code    12  anon$$obj.o(Veneer$$Code)
    Long Thumb to Thumb Veneer to set_rf_cal_cap 0x20006999   Thumb Code    12  anon$$obj.o(Veneer$$Code)
    Long Thumb to Thumb Veneer to set_gauss_modgain 0x200069a5   Thumb Code    12  anon$$obj.o(Veneer$$Code)
    Long Thumb to Thumb Veneer to lld_evt_start_isr 0x200069b1   Thumb Code    12  anon$$obj.o(Veneer$$Code)
    Long Thumb to Thumb Veneer to ke_sleep_check 0x200069bd   Thumb Code    12  anon$$obj.o(Veneer$$Code)
    Long Thumb to Thumb Veneer to ke_timer_sleep_check 0x200069c9   Thumb Code    12  anon$$obj.o(Veneer$$Code)
    Long Thumb to Thumb Veneer to lld_sleep_enter 0x200069d5   Thumb Code    12  anon$$obj.o(Veneer$$Code)
    Long Thumb to Thumb Veneer to ble_regs_push 0x200069e1   Thumb Code    12  anon$$obj.o(Veneer$$Code)
    Long Thumb to Thumb Veneer to attmdb_add_service 0x200069ed   Thumb Code    12  anon$$obj.o(Veneer$$Code)
    Long Thumb to Thumb Veneer to attmdb_add_attribute 0x200069f9   Thumb Code    12  anon$$obj.o(Veneer$$Code)
    Long Thumb to Thumb Veneer to attmdb_att_set_value 0x20006a05   Thumb Code    12  anon$$obj.o(Veneer$$Code)
    Long Thumb to Thumb Veneer to attmdb_att_partial_value_update 0x20006a11   Thumb Code    12  anon$$obj.o(Veneer$$Code)
    Long Thumb to Thumb Veneer to gapc_get_conhdl 0x20006a1d   Thumb Code    12  anon$$obj.o(Veneer$$Code)
    Long Thumb to Thumb Veneer to gapc_send_disconect_ind 0x20006a29   Thumb Code    12  anon$$obj.o(Veneer$$Code)
    Long Thumb to Thumb Veneer to __aeabi_memclr 0x20006a35   Thumb Code    12  anon$$obj.o(Veneer$$Code)
    Long Thumb to Thumb Veneer to ke_task_create 0x20006a41   Thumb Code    12  anon$$obj.o(Veneer$$Code)
    Long Thumb to Thumb Veneer to attmdb_att_get_value 0x20006a4d   Thumb Code    12  anon$$obj.o(Veneer$$Code)
    Long Thumb to Thumb Veneer to attm_svc_create_db 0x20006a59   Thumb Code    12  anon$$obj.o(Veneer$$Code)
    Long Thumb to Thumb Veneer to attmdb_svc_set_permission 0x20006a65   Thumb Code    12  anon$$obj.o(Veneer$$Code)
    Long Thumb to Thumb Veneer to attmdb_att_set_permission 0x20006a71   Thumb Code    12  anon$$obj.o(Veneer$$Code)
    Long Thumb to Thumb Veneer to gapc_get_conidx 0x20006a7d   Thumb Code    12  anon$$obj.o(Veneer$$Code)
    Long Thumb to Thumb Veneer to atts_write_rsp_send 0x20006a89   Thumb Code    12  anon$$obj.o(Veneer$$Code)
    Long Thumb to Thumb Veneer to nvds_get   0x20006a95   Thumb Code    12  anon$$obj.o(Veneer$$Code)
    Long Thumb to Thumb Veneer to platform_reset 0x20006aa1   Thumb Code    12  anon$$obj.o(Veneer$$Code)
    Long Thumb to Thumb Veneer to get_patching_spota_length 0x20006aad   Thumb Code    12  anon$$obj.o(Veneer$$Code)
    Long Thumb to Thumb Veneer to __aeabi_memset 0x20006ab9   Thumb Code    12  anon$$obj.o(Veneer$$Code)
    Long Thumb to Thumb Veneer to __aeabi_dmul 0x20006ac5   Thumb Code    12  anon$$obj.o(Veneer$$Code)
    Long Thumb to Thumb Veneer to __aeabi_memcpy4 0x20006ad1   Thumb Code    12  anon$$obj.o(Veneer$$Code)
    Long Thumb to Thumb Veneer to __aeabi_llsl 0x20006add   Thumb Code    12  anon$$obj.o(Veneer$$Code)
    Long Thumb to Thumb Veneer to _double_epilogue 0x20006ae9   Thumb Code    12  anon$$obj.o(Veneer$$Code)
    Long Thumb to Thumb Veneer to _double_round 0x20006af5   Thumb Code    12  anon$$obj.o(Veneer$$Code)
    Long Thumb to Thumb Veneer to __aeabi_llsr 0x20006b01   Thumb Code    12  anon$$obj.o(Veneer$$Code)
    __scatterload_copy                       0x20006b0d   Thumb Code    14  handlers.o(i.__scatterload_copy)
    __scatterload_null                       0x20006b1b   Thumb Code     2  handlers.o(i.__scatterload_null)
    __scatterload_zeroinit                   0x20006b1d   Thumb Code    14  handlers.o(i.__scatterload_zeroinit)
    __set_errno                              0x20006b2d   Thumb Code     6  errno.o(i.__set_errno)
    free                                     0x20006b39   Thumb Code    80  malloc.o(i.free)
    malloc                                   0x20006b8d   Thumb Code    92  malloc.o(i.malloc)
    sqrt                                     0x20006bf9   Thumb Code    66  sqrt.o(i.sqrt)
    LUT_CFG                                  0x20006c46   Data          22  jump_table.o(.constdata)
    my_llc_state_handler                     0x20006f04   Data         176  llc.obj(.constdata)
    my_llc_default_handler                   0x20006fb4   Data           8  llc.obj(.constdata)
    TASK_DESC_LLC                            0x20006fbc   Data          16  llc.obj(.constdata)
    SPI_FLASH_KNOWN_DEVICES_PARAMETERS_LIST  0x20006fcc   Data          80  spi_flash.o(.constdata)
    bas_att_db                               0x2000701c   Data          60  bass.o(.constdata)
    bas_svc                                  0x20007058   Data           2  bass.o(.constdata)
    bas_batt_level_char                      0x2000705a   Data           5  bass.o(.constdata)
    bass_disabled                            0x20007070   Data           8  bass_task.o(.constdata)
    bass_idle                                0x20007078   Data           8  bass_task.o(.constdata)
    bass_connected                           0x20007080   Data          24  bass_task.o(.constdata)
    bass_default_state                       0x20007098   Data           8  bass_task.o(.constdata)
    bass_state_handler                       0x200070a0   Data          24  bass_task.o(.constdata)
    bass_default_handler                     0x200070b8   Data           8  bass_task.o(.constdata)
    spotar_service                           0x200070c0   Data           2  spotar.o(.constdata)
    spotar_patch_mem_dev_val                 0x200070c2   Data          16  spotar.o(.constdata)
    spotar_gpio_map_val                      0x200070d2   Data          16  spotar.o(.constdata)
    spotar_patch_mem_info_val                0x200070e2   Data          16  spotar.o(.constdata)
    spotar_patch_len_val                     0x200070f2   Data          16  spotar.o(.constdata)
    spotar_patch_data_val                    0x20007102   Data          16  spotar.o(.constdata)
    spotar_patch_status_val                  0x20007112   Data          16  spotar.o(.constdata)
    spotar_disabled                          0x20007134   Data           8  spotar_task.o(.constdata)
    spotar_idle                              0x2000713c   Data           8  spotar_task.o(.constdata)
    spotar_active                            0x20007144   Data          24  spotar_task.o(.constdata)
    spotar_default_state                     0x2000715c   Data           8  spotar_task.o(.constdata)
    spotar_state_handler                     0x20007164   Data          24  spotar_task.o(.constdata)
    spotar_default_handler                   0x2000717c   Data           8  spotar_task.o(.constdata)
    diss_att_db                              0x20007184   Data         228  diss.o(.constdata)
    diss_dis_svc                             0x20007268   Data           2  diss.o(.constdata)
    diss_manufacturer_name_char              0x2000726a   Data           5  diss.o(.constdata)
    diss_model_nb_str_char                   0x2000726f   Data           5  diss.o(.constdata)
    diss_serial_nb_str_char                  0x20007274   Data           5  diss.o(.constdata)
    diss_hard_rev_str_char                   0x20007279   Data           5  diss.o(.constdata)
    diss_firm_rev_str_char                   0x2000727e   Data           5  diss.o(.constdata)
    diss_sw_rev_str_char                     0x20007283   Data           5  diss.o(.constdata)
    diss_system_id_char                      0x20007288   Data           5  diss.o(.constdata)
    diss_ieee_char                           0x2000728d   Data           5  diss.o(.constdata)
    diss_pnp_id_char                         0x20007292   Data           5  diss.o(.constdata)
    diss_disabled                            0x200072a8   Data           8  diss_task.o(.constdata)
    diss_idle                                0x200072b0   Data          16  diss_task.o(.constdata)
    diss_default_state                       0x200072c0   Data           8  diss_task.o(.constdata)
    diss_state_handler                       0x200072c8   Data          24  diss_task.o(.constdata)
    diss_default_handler                     0x200072e0   Data           8  diss_task.o(.constdata)
    prf_funcs                                0x2000733c   Data          48  app.o(.constdata)
    app_default_state                        0x200073b8   Data           8  app_task.o(.constdata)
    app_default_handler                      0x200073c0   Data           8  app_task.o(.constdata)
    app_process_handlers                     0x200073cc   Data          24  app_entry_point.o(.constdata)
    app_bass_process_handlers                0x200073e4   Data          48  app_bass_task.o(.constdata)
    app_spota_process_handlers               0x20007414   Data          40  app_spotar_task.o(.constdata)
    AFE44xx_Default_Register_500Hz_Settings  0x2000744c   Data         196  afe4400.o(.constdata)
    SAMPLINGTIME                             0x20007658   Data           4  ecgtohr.o(.constdata)
    sps_att_db                               0x200076a4   Data         208  sps_server.o(.constdata)
    sps_server_disabled                      0x20007784   Data           8  sps_server_task.o(.constdata)
    sps_server_idle                          0x2000778c   Data           8  sps_server_task.o(.constdata)
    sps_server_active                        0x20007794   Data          40  sps_server_task.o(.constdata)
    sps_server_state_handler                 0x200077bc   Data          24  sps_server_task.o(.constdata)
    sps_server_default_handler               0x200077d4   Data           8  sps_server_task.o(.constdata)
    user_spss_process_handlers               0x200077e0   Data          48  user_spss_task.o(.constdata)
    Region$$Table$$Base                      0x20007840   Number         0  anon$$obj.o(Region$$Table)
    Region$$Table$$Limit                     0x20007870   Number         0  anon$$obj.o(Region$$Table)
    startup_sleep_delay                      0x20007870   Data           4  arch_system.o(.data)
    spotar_patch_mem_dev_char                0x20007874   Data          19  spotar.o(.data)
    spotar_gpio_map_char                     0x20007887   Data          19  spotar.o(.data)
    spotar_patch_mem_info_char               0x2000789a   Data          19  spotar.o(.data)
    spotar_patch_len_char                    0x200078ad   Data          19  spotar.o(.data)
    spotar_patch_data_char                   0x200078c0   Data          19  spotar.o(.data)
    spotar_patch_status_char                 0x200078d3   Data          19  spotar.o(.data)
    resetcnt                                 0x200078e8   Data           2  user_periph_setup.o(.data)
    ADS1292R_Default_Register_Settings       0x200078ea   Data          12  ads1292.o(.data)
    __microlib_freelist                      0x20007930   Data           4  mvars.o(.data)
    __microlib_freelist_initialised          0x20007934   Data           4  mvars.o(.data)
    systemstat                               0x20008000   Data           1  user_periph_setup.o(.bss)
    charging                                 0x20008001   Data           1  user_periph_setup.o(.bss)
    battcheck                                0x20008002   Data           1  user_periph_setup.o(.bss)
    ldcnt                                    0x20008008   Data           2  user_periph_setup.o(.bss)
    ldoff                                    0x2000800a   Data           2  user_periph_setup.o(.bss)
    leastbeep                                0x2000800c   Data           2  user_periph_setup.o(.bss)
    spi_FLASH_CS_Pad                         0x2000800e   Data           2  user_periph_setup.o(.bss)
    rri_ready                                0x20008010   Data           2  user_periph_setup.o(.bss)
    timer_used                               0x20008012   Data           2  user_periph_setup.o(.bss)
    m_PPG                                    0x20008014   Data           4  user_periph_setup.o(.bss)
    m_PPG_pre                                0x20008018   Data           4  user_periph_setup.o(.bss)
    m_PPG_LPF                                0x2000801c   Data           4  user_periph_setup.o(.bss)
    m_PPG_LPF_pre                            0x20008020   Data           4  user_periph_setup.o(.bss)
    m_PPG_HPF                                0x20008024   Data           4  user_periph_setup.o(.bss)
    m_PPG_HPF_pre                            0x20008028   Data           4  user_periph_setup.o(.bss)
    n_ECG                                    0x20008030   Data           4  user_periph_setup.o(.bss)
    n_ECG_pre                                0x20008034   Data           4  user_periph_setup.o(.bss)
    n_ECG_LPF                                0x20008038   Data           4  user_periph_setup.o(.bss)
    n_ECG_LPF_pre                            0x2000803c   Data           4  user_periph_setup.o(.bss)
    n_ECG_HPF_pre                            0x20008040   Data           4  user_periph_setup.o(.bss)
    n_ECG_HPF                                0x20008044   Data           4  user_periph_setup.o(.bss)
    ecgbuff                                  0x20008048   Data         140  user_periph_setup.o(.bss)
    Mdata                                    0x200080d4   Data          60  dsp.o(.bss)
    IsPeak                                   0x20008378   Data           1  ecgtohr.o(.bss)
    m_EcgInitFlag                            0x2000837c   Data           4  ecgtohr.o(.bss)
    m_ECG                                    0x20008380   Data           4  ecgtohr.o(.bss)
    m_ECG_pre                                0x20008384   Data           4  ecgtohr.o(.bss)
    m_ECG_diff                               0x20008388   Data           4  ecgtohr.o(.bss)
    m_ECG_LPF                                0x2000838c   Data           4  ecgtohr.o(.bss)
    m_ECG_LPF_pre                            0x20008390   Data           4  ecgtohr.o(.bss)
    m_ECG_HPF_pre                            0x20008394   Data           4  ecgtohr.o(.bss)
    m_ECG_HPF                                0x20008398   Data           4  ecgtohr.o(.bss)
    m_ECG_LPF_diff                           0x2000839c   Data           4  ecgtohr.o(.bss)
    m_ECG_Peak_Index                         0x200083a0   Data           4  ecgtohr.o(.bss)
    m_TimeIndexECG                           0x200083a4   Data           4  ecgtohr.o(.bss)
    m_RR_IntervalCnt                         0x200083a8   Data           4  ecgtohr.o(.bss)
    m_ECG_Shift                              0x200083ac   Data           4  ecgtohr.o(.bss)
    m_ECG_LPF_Shift                          0x200083b0   Data           4  ecgtohr.o(.bss)
    m_ECG_Diff_Shift                         0x200083b4   Data           4  ecgtohr.o(.bss)
    m_ECG_Diff_Shift_pre                     0x200083b8   Data           4  ecgtohr.o(.bss)
    m_ECG_Lpf_Diff_Shift                     0x200083bc   Data           4  ecgtohr.o(.bss)
    rmsMax                                   0x200083c0   Data           4  ecgtohr.o(.bss)
    rmsMax_next                              0x200083c4   Data           4  ecgtohr.o(.bss)
    rmsMaxUsedCount                          0x200083c8   Data           4  ecgtohr.o(.bss)
    shiftCnt                                 0x200083cc   Data           4  ecgtohr.o(.bss)
    resultRRI                                0x200083d0   Data           4  ecgtohr.o(.bss)
    resultAmplitude                          0x200083d4   Data           4  ecgtohr.o(.bss)
    ECGShiftBuffer                           0x200083d8   Data          40  ecgtohr.o(.bss)
    ECGLPFShiftBuffer                        0x20008400   Data          40  ecgtohr.o(.bss)
    ECGDiffShiftBuffer                       0x20008428   Data          40  ecgtohr.o(.bss)
    ECGLpfDiffShiftBuffer                    0x20008450   Data          40  ecgtohr.o(.bss)
    __heap_base                              0x20008478   Data           0  boot_vectors.o(HEAP)
    __heap_limit                             0x20008578   Data           0  boot_vectors.o(HEAP)
    dev_bdaddr                               0x20008578   Data           6  nvds.o(retention_mem_area0)
    sys_startup_flag                         0x2000857e   Data           1  arch_main.o(retention_mem_area0)
    sleep_md                                 0x2000857f   Data           1  arch_sleep.o(retention_mem_area0)
    sleep_pend                               0x20008580   Data           1  arch_sleep.o(retention_mem_area0)
    sleep_cnt                                0x20008581   Data           1  arch_sleep.o(retention_mem_area0)
    sleep_ext_force                          0x20008582   Data           1  arch_sleep.o(retention_mem_area0)
    cal_enable                               0x20008584   Data           1  arch_system.o(retention_mem_area0)
    force_rf_cal                             0x20008585   Data           1  arch_system.o(retention_mem_area0)
    lp_clk_sel                               0x20008588   Data           4  arch_system.o(retention_mem_area0)
    rcx_freq                                 0x2000858c   Data           4  arch_system.o(retention_mem_area0)
    rcx_period                               0x20008590   Data           4  arch_system.o(retention_mem_area0)
    rcx_slot_duration                        0x20008594   Data           4  arch_system.o(retention_mem_area0)
    alt_evts                                 0x20008598   Data          24  llc.obj(retention_mem_area0)
    wkupct_quad_IRQ_status                   0x200085b0   Data           1  wkupct_quadec.o(retention_mem_area0)
    arch_rwble_last_event                    0x200085be   Data           1  rwble.o(retention_mem_area0)
    set_boost_low_vbat1v_overhead            0x200085bf   Data           1  rwble.o(retention_mem_area0)
    fine_hit                                 0x200085c0   Data           1  rwble.o(retention_mem_area0)
    clk_freq_trim_reg_value                  0x200085c2   Data           2  rwble.o(retention_mem_area0)
    wakeup_lp_comp                           0x200085c4   Data           2  rwble.o(retention_mem_area0)
    bass_env                                 0x200085c6   Data          14  bass.o(retention_mem_area0)
    bass_state                               0x200085d4   Data           1  bass_task.o(retention_mem_area0)
    spotar_env                               0x200085d6   Data           8  spotar.o(retention_mem_area0)
    spotar_state                             0x200085de   Data           1  spotar_task.o(retention_mem_area0)
    diss_env                                 0x200085e0   Data          18  diss.o(retention_mem_area0)
    diss_state                               0x200085f2   Data           1  diss_task.o(retention_mem_area0)
    app_env                                  0x2000860c   Data          12  app.o(retention_mem_area0)
    app_prf_srv_perm                         0x20008618   Data          20  app.o(retention_mem_area0)
    app_state                                0x2000862c   Data           1  app_task.o(retention_mem_area0)
    cur_batt_level                           0x20008670   Data           1  app_bass.o(retention_mem_area0)
    batt_alert_en                            0x20008671   Data           1  app_bass.o(retention_mem_area0)
    bat_led_state                            0x20008672   Data           1  app_bass.o(retention_mem_area0)
    bat_lvl_alert_used                       0x20008673   Data           1  app_bass.o(retention_mem_area0)
    bat_led_port                             0x20008674   Data           1  app_bass.o(retention_mem_area0)
    bat_led_pin                              0x20008675   Data           1  app_bass.o(retention_mem_area0)
    bat_poll_timeout                         0x20008676   Data           2  app_bass.o(retention_mem_area0)
    spota_state                              0x20008680   Data          40  app_spotar.o(retention_mem_area0)
    spss_env                                 0x200086a8   Data          16  sps_server.o(retention_mem_area0)
    rwip_heap_non_ret                        0x200087f4   Data        2060  jump_table.o(heap_mem_area_not_ret)
    SystemCoreClock                          0x20009000   Data           0  rom_symdef.txt ABSOLUTE
    error                                    0x20009004   Data           0  rom_symdef.txt ABSOLUTE
    GPIOHandlerFunction                      0x20009020   Data          20  gpio.o(.bss)
    callback_function                        0x20009034   Data           4  systick.o(.bss)
    spi_driver_cs_pad                        0x20009038   Data           2  spi.o(.bss)
    spi_flash_device_index                   0x2000903c   Data           2  spi_flash.o(.bss)
    spi_flash_detected_device                0x20009040   Data           4  spi_flash.o(.bss)
    spi_flash_size                           0x20009044   Data           4  spi_flash.o(.bss)
    spi_flash_page_size                      0x20009048   Data           4  spi_flash.o(.bss)
    sps_server_state                         0x2000904c   Data           1  sps_server_task.o(.bss)
    connected                                0x2000904d   Data           1  user_sps_device.o(.bss)
    spota_new_pd                             0x20009050   Data          80  app_spotar.o(spotar_patch_area)
    spota_all_pd                             0x200090a0   Data         256  app_spotar.o(spotar_patch_area)
    __initial_sp                             0x20009800   Data           0  boot_vectors.o(STACK)



==============================================================================

Memory Map of the image

  Image Entry point : 0x20000441

  Load Region LR_IROM1 (Base: 0x20000000, Size: 0x000000a0, Max: 0x00000160, ABSOLUTE)

    Execution Region ER_IROM1 (Base: 0x20000000, Size: 0x000000a0, Max: 0x00000160, ABSOLUTE)

    Base Addr    Size         Type   Attr      Idx    E Section Name        Object

    0x20000000   0x000000a0   Data   RO          231    RESET               boot_vectors.o



  Load Region LR_IROM2 (Base: 0x20000160, Size: 0x00000160, Max: 0x00000160, ABSOLUTE)

    Execution Region ER_IROM2 (Base: 0x20000160, Size: 0x00000160, Max: 0x00000160, ABSOLUTE)

    Base Addr    Size         Type   Attr      Idx    E Section Name        Object

    0x20000160   0x00000160   Data   RO          572    jump_table_mem_area  jump_table.o



  Load Region LR_IROM3 (Base: 0x200002c0, Size: 0x00000064, Max: 0x00000080, ABSOLUTE)

    Execution Region ER_IROM3 (Base: 0x200002c0, Size: 0x00000064, Max: 0x00000080, ABSOLUTE)

    Base Addr    Size         Type   Attr      Idx    E Section Name        Object

    0x200002c0   0x00000064   Data   RO         1504    timeout_table_area  gapm.o



  Load Region LR_IROM4 (Base: 0x20000340, Size: 0x000000a4, Max: 0x00000100, ABSOLUTE)

    Execution Region ER_IROM4 (Base: 0x20000340, Size: 0x000000a4, Max: 0x00000100, ABSOLUTE)

    Base Addr    Size         Type   Attr      Idx    E Section Name        Object

    0x20000340   0x000000a4   Data   RO          290    nvds_data_storage_area  nvds.o



  Load Region LR_IROM5 (Base: 0x20000440, Size: 0x000074fc, Max: 0x000093c0, ABSOLUTE)

    Execution Region ER_IROM5 (Base: 0x20000440, Size: 0x000074fc, Max: 0x00007ac0, ABSOLUTE)

    Base Addr    Size         Type   Attr      Idx    E Section Name        Object

    0x20000440   0x00000000   Code   RO         2844  * .ARM.Collect$$$$00000000  mc_p.l(entry.o)
    0x20000440   0x00000004   Code   RO         2897    .ARM.Collect$$$$00000001  mc_p.l(entry2.o)
    0x20000444   0x00000004   Code   RO         2900    .ARM.Collect$$$$00000004  mc_p.l(entry5.o)
    0x20000448   0x00000000   Code   RO         2902    .ARM.Collect$$$$00000008  mc_p.l(entry7b.o)
    0x20000448   0x00000000   Code   RO         2904    .ARM.Collect$$$$0000000A  mc_p.l(entry8b.o)
    0x20000448   0x00000008   Code   RO         2905    .ARM.Collect$$$$0000000B  mc_p.l(entry9a.o)
    0x20000450   0x00000000   Code   RO         2907    .ARM.Collect$$$$0000000D  mc_p.l(entry10a.o)
    0x20000450   0x00000000   Code   RO         2909    .ARM.Collect$$$$0000000F  mc_p.l(entry11a.o)
    0x20000450   0x00000004   Code   RO         2898    .ARM.Collect$$$$00002712  mc_p.l(entry2.o)
    0x20000454   0x00000050   Code   RO            2    .text               system_armcm0.o
    0x200004a4   0x0000006c   Code   RO          232    .text               boot_vectors.o
    0x20000510   0x00000018   Code   RO          237    .text               hardfault_handler.o
    0x20000528   0x00000038   Code   RO          258    .text               nmi_handler.o
    0x20000560   0x00000208   Code   RO          288    .text               nvds.o
    0x20000768   0x000001c8   Code   RO          312    .text               arch_main.o
    0x20000930   0x00000002   Code   RO          566    .text               jump_table.o
    0x20000932   0x00000002   PAD
    0x20000934   0x000000c4   Code   RO          655    .text               arch_sleep.o
    0x200009f8   0x00000350   Code   RO          707    .text               arch_system.o
    0x20000d48   0x00000178   Code   RO          826    .text               arch_patch.o
    0x20000ec0   0x000000ec   Code   RO          895    .text               atts_task.obj
    0x20000fac   0x000000c4   Code   RO          897    .text               ch_map.obj
    0x20001070   0x00000180   Code   RO          899    .text               gapm_util.obj
    0x200011f0   0x000000b8   Code   RO          901    .text               ke_task.obj
    0x200012a8   0x0000015c   Code   RO          903    .text               smpc.obj
    0x20001404   0x00000214   Code   RO          905    .text               smpc_task.obj
    0x20001618   0x0000027c   Code   RO          907    .text               llc.obj
    0x20001894   0x0000002c   Code   RO          931    .text               syscntl.o
    0x200018c0   0x0000021c   Code   RO          951    .text               gpio.o
    0x20001adc   0x000000a4   Code   RO          989    .text               battery.o
    0x20001b80   0x00000120   Code   RO         1014    .text               adc.o
    0x20001ca0   0x000001bc   Code   RO         1035    .text               trng.o
    0x20001e5c   0x00000010   Code   RO         1049    .text               systick.o
    0x20001e6c   0x0000013c   Code   RO         1096    .text               spi.o
    0x20001fa8   0x00000078   Code   RO         1120    .text               wkupct_quadec.o
    0x20002020   0x000002d4   Code   RO         1232    .text               spi_flash.o
    0x200022f4   0x000002ec   Code   RO         1301    .text               rf_580.o
    0x200025e0   0x0000032c   Code   RO         1347    .text               rwble.o
    0x2000290c   0x00000190   Code   RO         1476    .text               rwip.o
    0x20002a9c   0x00000114   Code   RO         1523    .text               attm_db_128.o
    0x20002bb0   0x000000f0   Code   RO         1552    .text               prf_utils.o
    0x20002ca0   0x000000c0   Code   RO         1587    .text               bass.o
    0x20002d60   0x00000314   Code   RO         1613    .text               bass_task.o
    0x20003074   0x00000054   Code   RO         1636    .text               spotar.o
    0x200030c8   0x0000045c   Code   RO         1685    .text               spotar_task.o
    0x20003524   0x000000a4   Code   RO         1708    .text               diss.o
    0x200035c8   0x000000fc   Code   RO         1742    .text               diss_task.o
    0x200036c4   0x00000068   Code   RO         1764    .text               app_default_handlers.o
    0x2000372c   0x00000414   Code   RO         1823    .text               app.o
    0x20003b40   0x000001f4   Code   RO         1982    .text               app_task.o
    0x20003d34   0x00000088   Code   RO         2073    .text               app_entry_point.o
    0x20003dbc   0x00000026   Code   RO         2094    .text               app_msg_utils.o
    0x20003de2   0x00000002   PAD
    0x20003de4   0x00000048   Code   RO         2118    .text               app_easy_msg_utils.o
    0x20003e2c   0x00000002   Code   RO         2312    .text               app_easy_timer.o
    0x20003e2e   0x00000002   PAD
    0x20003e30   0x00000134   Code   RO         2313    .text               app_easy_timer.o
    0x20003f64   0x00000160   Code   RO         2349    .text               app_bass.o
    0x200040c4   0x000000c4   Code   RO         2386    .text               app_bass_task.o
    0x20004188   0x000006ec   Code   RO         2406    .text               app_spotar.o
    0x20004874   0x0000018c   Code   RO         2433    .text               app_spotar_task.o
    0x20004a00   0x00000048   Code   RO         2458    .text               app_diss.o
    0x20004a48   0x00000164   Code   RO         2476    .text               app_diss_task.o
    0x20004bac   0x00000ab0   Code   RO         2490    .text               user_periph_setup.o
    0x2000565c   0x000000b8   Code   RO         2526    .text               ads1292.o
    0x20005714   0x0000009c   Code   RO         2553    .text               afe4400.o
    0x200057b0   0x00000084   Code   RO         2577    .text               dsp.o
    0x20005834   0x00000204   Code   RO         2650    .text               ecgtohr.o
    0x20005a38   0x000000ac   Code   RO         2695    .text               sps_server.o
    0x20005ae4   0x00000234   Code   RO         2731    .text               sps_server_task.o
    0x20005d18   0x00000148   Code   RO         2758    .text               user_sps_device.o
    0x20005e60   0x00000038   Code   RO         2796    .text               user_spss.o
    0x20005e98   0x00000090   Code   RO         2820    .text               user_spss_task.o
    0x20005f28   0x000000b2   Code   RO         2873    .text               mf_p.l(fadd.o)
    0x20005fda   0x0000007a   Code   RO         2875    .text               mf_p.l(fmul.o)
    0x20006054   0x0000007c   Code   RO         2877    .text               mf_p.l(fdiv.o)
    0x200060d0   0x00000164   Code   RO         2881    .text               mf_p.l(dadd.o)
    0x20006234   0x000000f0   Code   RO         2883    .text               mf_p.l(ddiv.o)
    0x20006324   0x00000016   Code   RO         2885    .text               mf_p.l(fflti.o)
    0x2000633a   0x00000032   Code   RO         2887    .text               mf_p.l(ffixi.o)
    0x2000636c   0x00000028   Code   RO         2889    .text               mf_p.l(f2d.o)
    0x20006394   0x00000028   Code   RO         2891    .text               mf_p.l(cdrcmple.o)
    0x200063bc   0x00000038   Code   RO         2893    .text               mf_p.l(d2f.o)
    0x200063f4   0x00000014   Code   RO         2895    .text               mf_p.l(cfrcmple.o)
    0x20006408   0x00000026   Code   RO         2911    .text               mc_p.l(llsshr.o)
    0x2000642e   0x00000082   Code   RO         2922    .text               mf_p.l(fepilogue.o)
    0x200064b0   0x000000a2   Code   RO         2924    .text               mf_p.l(dsqrt.o)
    0x20006552   0x00000002   PAD
    0x20006554   0x00000024   Code   RO         2926    .text               mc_p.l(init.o)
    0x20006578   0x0000000c   Ven    RO         2936    Veneer$$Code        anon$$obj.o
    0x20006584   0x0000000c   Ven    RO         2937    Veneer$$Code        anon$$obj.o
    0x20006590   0x0000000c   Ven    RO         2938    Veneer$$Code        anon$$obj.o
    0x2000659c   0x0000000c   Ven    RO         2939    Veneer$$Code        anon$$obj.o
    0x200065a8   0x0000000c   Ven    RO         2940    Veneer$$Code        anon$$obj.o
    0x200065b4   0x0000000c   Ven    RO         2941    Veneer$$Code        anon$$obj.o
    0x200065c0   0x0000000c   Ven    RO         2942    Veneer$$Code        anon$$obj.o
    0x200065cc   0x0000000c   Ven    RO         2943    Veneer$$Code        anon$$obj.o
    0x200065d8   0x0000000c   Ven    RO         2944    Veneer$$Code        anon$$obj.o
    0x200065e4   0x0000000c   Ven    RO         2945    Veneer$$Code        anon$$obj.o
    0x200065f0   0x0000000c   Ven    RO         2946    Veneer$$Code        anon$$obj.o
    0x200065fc   0x0000000c   Ven    RO         2947    Veneer$$Code        anon$$obj.o
    0x20006608   0x0000000c   Ven    RO         2948    Veneer$$Code        anon$$obj.o
    0x20006614   0x0000000c   Ven    RO         2949    Veneer$$Code        anon$$obj.o
    0x20006620   0x0000000c   Ven    RO         2950    Veneer$$Code        anon$$obj.o
    0x2000662c   0x0000000c   Ven    RO         2951    Veneer$$Code        anon$$obj.o
    0x20006638   0x0000000c   Ven    RO         2952    Veneer$$Code        anon$$obj.o
    0x20006644   0x0000000c   Ven    RO         2953    Veneer$$Code        anon$$obj.o
    0x20006650   0x0000000c   Ven    RO         2954    Veneer$$Code        anon$$obj.o
    0x2000665c   0x0000000c   Ven    RO         2955    Veneer$$Code        anon$$obj.o
    0x20006668   0x0000000c   Ven    RO         2956    Veneer$$Code        anon$$obj.o
    0x20006674   0x0000000c   Ven    RO         2957    Veneer$$Code        anon$$obj.o
    0x20006680   0x0000000c   Ven    RO         2958    Veneer$$Code        anon$$obj.o
    0x2000668c   0x0000000c   Ven    RO         2959    Veneer$$Code        anon$$obj.o
    0x20006698   0x0000000c   Ven    RO         2960    Veneer$$Code        anon$$obj.o
    0x200066a4   0x0000000c   Ven    RO         2961    Veneer$$Code        anon$$obj.o
    0x200066b0   0x0000000c   Ven    RO         2962    Veneer$$Code        anon$$obj.o
    0x200066bc   0x0000000c   Ven    RO         2963    Veneer$$Code        anon$$obj.o
    0x200066c8   0x0000000c   Ven    RO         2964    Veneer$$Code        anon$$obj.o
    0x200066d4   0x0000000c   Ven    RO         2965    Veneer$$Code        anon$$obj.o
    0x200066e0   0x0000000c   Ven    RO         2966    Veneer$$Code        anon$$obj.o
    0x200066ec   0x0000000c   Ven    RO         2967    Veneer$$Code        anon$$obj.o
    0x200066f8   0x0000000c   Ven    RO         2968    Veneer$$Code        anon$$obj.o
    0x20006704   0x0000000c   Ven    RO         2969    Veneer$$Code        anon$$obj.o
    0x20006710   0x0000000c   Ven    RO         2970    Veneer$$Code        anon$$obj.o
    0x2000671c   0x0000000c   Ven    RO         2971    Veneer$$Code        anon$$obj.o
    0x20006728   0x0000000c   Ven    RO         2972    Veneer$$Code        anon$$obj.o
    0x20006734   0x0000000c   Ven    RO         2973    Veneer$$Code        anon$$obj.o
    0x20006740   0x0000000c   Ven    RO         2974    Veneer$$Code        anon$$obj.o
    0x2000674c   0x0000000c   Ven    RO         2975    Veneer$$Code        anon$$obj.o
    0x20006758   0x0000000c   Ven    RO         2976    Veneer$$Code        anon$$obj.o
    0x20006764   0x0000000c   Ven    RO         2977    Veneer$$Code        anon$$obj.o
    0x20006770   0x0000000c   Ven    RO         2978    Veneer$$Code        anon$$obj.o
    0x2000677c   0x0000000c   Ven    RO         2979    Veneer$$Code        anon$$obj.o
    0x20006788   0x0000000c   Ven    RO         2980    Veneer$$Code        anon$$obj.o
    0x20006794   0x0000000c   Ven    RO         2981    Veneer$$Code        anon$$obj.o
    0x200067a0   0x0000000c   Ven    RO         2982    Veneer$$Code        anon$$obj.o
    0x200067ac   0x0000000c   Ven    RO         2983    Veneer$$Code        anon$$obj.o
    0x200067b8   0x0000000c   Ven    RO         2984    Veneer$$Code        anon$$obj.o
    0x200067c4   0x0000000c   Ven    RO         2985    Veneer$$Code        anon$$obj.o
    0x200067d0   0x0000000c   Ven    RO         2986    Veneer$$Code        anon$$obj.o
    0x200067dc   0x0000000c   Ven    RO         2987    Veneer$$Code        anon$$obj.o
    0x200067e8   0x0000000c   Ven    RO         2988    Veneer$$Code        anon$$obj.o
    0x200067f4   0x0000000c   Ven    RO         2989    Veneer$$Code        anon$$obj.o
    0x20006800   0x0000000c   Ven    RO         2990    Veneer$$Code        anon$$obj.o
    0x2000680c   0x0000000c   Ven    RO         2991    Veneer$$Code        anon$$obj.o
    0x20006818   0x0000000c   Ven    RO         2992    Veneer$$Code        anon$$obj.o
    0x20006824   0x0000000c   Ven    RO         2993    Veneer$$Code        anon$$obj.o
    0x20006830   0x0000000c   Ven    RO         2994    Veneer$$Code        anon$$obj.o
    0x2000683c   0x0000000c   Ven    RO         2995    Veneer$$Code        anon$$obj.o
    0x20006848   0x0000000c   Ven    RO         2996    Veneer$$Code        anon$$obj.o
    0x20006854   0x0000000c   Ven    RO         2997    Veneer$$Code        anon$$obj.o
    0x20006860   0x0000000c   Ven    RO         2998    Veneer$$Code        anon$$obj.o
    0x2000686c   0x0000000c   Ven    RO         2999    Veneer$$Code        anon$$obj.o
    0x20006878   0x0000000c   Ven    RO         3000    Veneer$$Code        anon$$obj.o
    0x20006884   0x0000000c   Ven    RO         3001    Veneer$$Code        anon$$obj.o
    0x20006890   0x0000000c   Ven    RO         3002    Veneer$$Code        anon$$obj.o
    0x2000689c   0x0000000c   Ven    RO         3003    Veneer$$Code        anon$$obj.o
    0x200068a8   0x0000000c   Ven    RO         3004    Veneer$$Code        anon$$obj.o
    0x200068b4   0x0000000c   Ven    RO         3005    Veneer$$Code        anon$$obj.o
    0x200068c0   0x0000000c   Ven    RO         3006    Veneer$$Code        anon$$obj.o
    0x200068cc   0x0000000c   Ven    RO         3007    Veneer$$Code        anon$$obj.o
    0x200068d8   0x0000000c   Ven    RO         3008    Veneer$$Code        anon$$obj.o
    0x200068e4   0x0000000c   Ven    RO         3009    Veneer$$Code        anon$$obj.o
    0x200068f0   0x0000000c   Ven    RO         3010    Veneer$$Code        anon$$obj.o
    0x200068fc   0x0000000c   Ven    RO         3011    Veneer$$Code        anon$$obj.o
    0x20006908   0x0000000c   Ven    RO         3012    Veneer$$Code        anon$$obj.o
    0x20006914   0x0000000c   Ven    RO         3013    Veneer$$Code        anon$$obj.o
    0x20006920   0x0000000c   Ven    RO         3014    Veneer$$Code        anon$$obj.o
    0x2000692c   0x0000000c   Ven    RO         3015    Veneer$$Code        anon$$obj.o
    0x20006938   0x0000000c   Ven    RO         3016    Veneer$$Code        anon$$obj.o
    0x20006944   0x0000000c   Ven    RO         3017    Veneer$$Code        anon$$obj.o
    0x20006950   0x0000000c   Ven    RO         3018    Veneer$$Code        anon$$obj.o
    0x2000695c   0x0000000c   Ven    RO         3019    Veneer$$Code        anon$$obj.o
    0x20006968   0x0000000c   Ven    RO         3020    Veneer$$Code        anon$$obj.o
    0x20006974   0x0000000c   Ven    RO         3021    Veneer$$Code        anon$$obj.o
    0x20006980   0x0000000c   Ven    RO         3022    Veneer$$Code        anon$$obj.o
    0x2000698c   0x0000000c   Ven    RO         3023    Veneer$$Code        anon$$obj.o
    0x20006998   0x0000000c   Ven    RO         3024    Veneer$$Code        anon$$obj.o
    0x200069a4   0x0000000c   Ven    RO         3025    Veneer$$Code        anon$$obj.o
    0x200069b0   0x0000000c   Ven    RO         3026    Veneer$$Code        anon$$obj.o
    0x200069bc   0x0000000c   Ven    RO         3027    Veneer$$Code        anon$$obj.o
    0x200069c8   0x0000000c   Ven    RO         3028    Veneer$$Code        anon$$obj.o
    0x200069d4   0x0000000c   Ven    RO         3029    Veneer$$Code        anon$$obj.o
    0x200069e0   0x0000000c   Ven    RO         3030    Veneer$$Code        anon$$obj.o
    0x200069ec   0x0000000c   Ven    RO         3031    Veneer$$Code        anon$$obj.o
    0x200069f8   0x0000000c   Ven    RO         3032    Veneer$$Code        anon$$obj.o
    0x20006a04   0x0000000c   Ven    RO         3033    Veneer$$Code        anon$$obj.o
    0x20006a10   0x0000000c   Ven    RO         3034    Veneer$$Code        anon$$obj.o
    0x20006a1c   0x0000000c   Ven    RO         3035    Veneer$$Code        anon$$obj.o
    0x20006a28   0x0000000c   Ven    RO         3036    Veneer$$Code        anon$$obj.o
    0x20006a34   0x0000000c   Ven    RO         3037    Veneer$$Code        anon$$obj.o
    0x20006a40   0x0000000c   Ven    RO         3038    Veneer$$Code        anon$$obj.o
    0x20006a4c   0x0000000c   Ven    RO         3039    Veneer$$Code        anon$$obj.o
    0x20006a58   0x0000000c   Ven    RO         3040    Veneer$$Code        anon$$obj.o
    0x20006a64   0x0000000c   Ven    RO         3041    Veneer$$Code        anon$$obj.o
    0x20006a70   0x0000000c   Ven    RO         3042    Veneer$$Code        anon$$obj.o
    0x20006a7c   0x0000000c   Ven    RO         3043    Veneer$$Code        anon$$obj.o
    0x20006a88   0x0000000c   Ven    RO         3044    Veneer$$Code        anon$$obj.o
    0x20006a94   0x0000000c   Ven    RO         3045    Veneer$$Code        anon$$obj.o
    0x20006aa0   0x0000000c   Ven    RO         3046    Veneer$$Code        anon$$obj.o
    0x20006aac   0x0000000c   Ven    RO         3047    Veneer$$Code        anon$$obj.o
    0x20006ab8   0x0000000c   Ven    RO         3048    Veneer$$Code        anon$$obj.o
    0x20006ac4   0x0000000c   Ven    RO         3049    Veneer$$Code        anon$$obj.o
    0x20006ad0   0x0000000c   Ven    RO         3050    Veneer$$Code        anon$$obj.o
    0x20006adc   0x0000000c   Ven    RO         3051    Veneer$$Code        anon$$obj.o
    0x20006ae8   0x0000000c   Ven    RO         3052    Veneer$$Code        anon$$obj.o
    0x20006af4   0x0000000c   Ven    RO         3053    Veneer$$Code        anon$$obj.o
    0x20006b00   0x0000000c   Ven    RO         3054    Veneer$$Code        anon$$obj.o
    0x20006b0c   0x0000000e   Code   RO         2930    i.__scatterload_copy  mc_p.l(handlers.o)
    0x20006b1a   0x00000002   Code   RO         2931    i.__scatterload_null  mc_p.l(handlers.o)
    0x20006b1c   0x0000000e   Code   RO         2932    i.__scatterload_zeroinit  mc_p.l(handlers.o)
    0x20006b2a   0x00000002   PAD
    0x20006b2c   0x0000000c   Code   RO         2917    i.__set_errno       mc_p.l(errno.o)
    0x20006b38   0x00000054   Code   RO         2845    i.free              mc_p.l(malloc.o)
    0x20006b8c   0x0000006c   Code   RO         2846    i.malloc            mc_p.l(malloc.o)
    0x20006bf8   0x00000048   Code   RO         2837    i.sqrt              m_ps.l(sqrt.o)
    0x20006c40   0x00000006   Data   RO          289    .constdata          nvds.o
    0x20006c46   0x00000016   Data   RO          567    .constdata          jump_table.o
    0x20006c5c   0x00000130   Data   RO          827    .constdata          arch_patch.o
    0x20006d8c   0x00000008   Data   RO          828    .constdata          arch_patch.o
    0x20006d94   0x00000030   Data   RO          829    .constdata          arch_patch.o
    0x20006dc4   0x00000130   Data   RO          908    .constdata          llc.obj
    0x20006ef4   0x00000010   Data   RO          909    .constdata          llc.obj
    0x20006f04   0x000000b0   Data   RO          910    .constdata          llc.obj
    0x20006fb4   0x00000008   Data   RO          911    .constdata          llc.obj
    0x20006fbc   0x00000010   Data   RO          912    .constdata          llc.obj
    0x20006fcc   0x00000050   Data   RO         1243    .constdata          spi_flash.o
    0x2000701c   0x0000003c   Data   RO         1588    .constdata          bass.o
    0x20007058   0x00000002   Data   RO         1589    .constdata          bass.o
    0x2000705a   0x00000005   Data   RO         1590    .constdata          bass.o
    0x2000705f   0x00000001   PAD
    0x20007060   0x00000010   Data   RO         1591    .constdata          bass.o
    0x20007070   0x00000008   Data   RO         1614    .constdata          bass_task.o
    0x20007078   0x00000008   Data   RO         1615    .constdata          bass_task.o
    0x20007080   0x00000018   Data   RO         1616    .constdata          bass_task.o
    0x20007098   0x00000008   Data   RO         1617    .constdata          bass_task.o
    0x200070a0   0x00000018   Data   RO         1618    .constdata          bass_task.o
    0x200070b8   0x00000008   Data   RO         1619    .constdata          bass_task.o
    0x200070c0   0x00000002   Data   RO         1644    .constdata          spotar.o
    0x200070c2   0x00000010   Data   RO         1645    .constdata          spotar.o
    0x200070d2   0x00000010   Data   RO         1646    .constdata          spotar.o
    0x200070e2   0x00000010   Data   RO         1647    .constdata          spotar.o
    0x200070f2   0x00000010   Data   RO         1648    .constdata          spotar.o
    0x20007102   0x00000010   Data   RO         1649    .constdata          spotar.o
    0x20007112   0x00000010   Data   RO         1650    .constdata          spotar.o
    0x20007122   0x00000002   PAD
    0x20007124   0x00000010   Data   RO         1651    .constdata          spotar.o
    0x20007134   0x00000008   Data   RO         1686    .constdata          spotar_task.o
    0x2000713c   0x00000008   Data   RO         1687    .constdata          spotar_task.o
    0x20007144   0x00000018   Data   RO         1688    .constdata          spotar_task.o
    0x2000715c   0x00000008   Data   RO         1689    .constdata          spotar_task.o
    0x20007164   0x00000018   Data   RO         1690    .constdata          spotar_task.o
    0x2000717c   0x00000008   Data   RO         1691    .constdata          spotar_task.o
    0x20007184   0x000000e4   Data   RO         1709    .constdata          diss.o
    0x20007268   0x00000002   Data   RO         1710    .constdata          diss.o
    0x2000726a   0x00000005   Data   RO         1711    .constdata          diss.o
    0x2000726f   0x00000005   Data   RO         1712    .constdata          diss.o
    0x20007274   0x00000005   Data   RO         1713    .constdata          diss.o
    0x20007279   0x00000005   Data   RO         1714    .constdata          diss.o
    0x2000727e   0x00000005   Data   RO         1715    .constdata          diss.o
    0x20007283   0x00000005   Data   RO         1716    .constdata          diss.o
    0x20007288   0x00000005   Data   RO         1717    .constdata          diss.o
    0x2000728d   0x00000005   Data   RO         1718    .constdata          diss.o
    0x20007292   0x00000005   Data   RO         1719    .constdata          diss.o
    0x20007297   0x00000001   PAD
    0x20007298   0x00000010   Data   RO         1720    .constdata          diss.o
    0x200072a8   0x00000008   Data   RO         1743    .constdata          diss_task.o
    0x200072b0   0x00000010   Data   RO         1744    .constdata          diss_task.o
    0x200072c0   0x00000008   Data   RO         1745    .constdata          diss_task.o
    0x200072c8   0x00000018   Data   RO         1746    .constdata          diss_task.o
    0x200072e0   0x00000008   Data   RO         1747    .constdata          diss_task.o
    0x200072e8   0x00000094   Data   RO         1845    .constdata          app.o
    0x2000737c   0x0000003c   Data   RO         1984    .constdata          app_task.o
    0x200073b8   0x00000008   Data   RO         1985    .constdata          app_task.o
    0x200073c0   0x00000008   Data   RO         1986    .constdata          app_task.o
    0x200073c8   0x0000001c   Data   RO         2074    .constdata          app_entry_point.o
    0x200073e4   0x00000030   Data   RO         2388    .constdata          app_bass_task.o
    0x20007414   0x00000028   Data   RO         2434    .constdata          app_spotar_task.o
    0x2000743c   0x00000010   Data   RO         2477    .constdata          app_diss_task.o
    0x2000744c   0x000000c4   Data   RO         2554    .constdata          afe4400.o
    0x20007510   0x00000148   Data   RO         2583    .constdata          dsp.o
    0x20007658   0x00000004   Data   RO         2657    .constdata          ecgtohr.o
    0x2000765c   0x00000010   Data   RO         2696    .constdata          sps_server.o
    0x2000766c   0x00000010   Data   RO         2697    .constdata          sps_server.o
    0x2000767c   0x00000010   Data   RO         2698    .constdata          sps_server.o
    0x2000768c   0x00000010   Data   RO         2699    .constdata          sps_server.o
    0x2000769c   0x00000002   Data   RO         2700    .constdata          sps_server.o
    0x2000769e   0x00000002   Data   RO         2701    .constdata          sps_server.o
    0x200076a0   0x00000002   Data   RO         2702    .constdata          sps_server.o
    0x200076a2   0x00000002   Data   RO         2703    .constdata          sps_server.o
    0x200076a4   0x000000d0   Data   RO         2704    .constdata          sps_server.o
    0x20007774   0x00000010   Data   RO         2705    .constdata          sps_server.o
    0x20007784   0x00000008   Data   RO         2733    .constdata          sps_server_task.o
    0x2000778c   0x00000008   Data   RO         2734    .constdata          sps_server_task.o
    0x20007794   0x00000028   Data   RO         2735    .constdata          sps_server_task.o
    0x200077bc   0x00000018   Data   RO         2736    .constdata          sps_server_task.o
    0x200077d4   0x00000008   Data   RO         2737    .constdata          sps_server_task.o
    0x200077dc   0x00000004   Data   RO         2762    .constdata          user_sps_device.o
    0x200077e0   0x00000030   Data   RO         2821    .constdata          user_spss_task.o
    0x20007810   0x0000002d   Data   RO         2706    .conststring        sps_server.o
    0x2000783d   0x00000003   PAD
    0x20007840   0x00000030   Data   RO         2928    Region$$Table       anon$$obj.o
    0x20007870   0x00000004   Data   RW          714    .data               arch_system.o
    0x20007874   0x00000013   Data   RW         1652    .data               spotar.o
    0x20007887   0x00000013   Data   RW         1653    .data               spotar.o
    0x2000789a   0x00000013   Data   RW         1654    .data               spotar.o
    0x200078ad   0x00000013   Data   RW         1655    .data               spotar.o
    0x200078c0   0x00000013   Data   RW         1656    .data               spotar.o
    0x200078d3   0x00000013   Data   RW         1657    .data               spotar.o
    0x200078e6   0x00000004   Data   RW         2498    .data               user_periph_setup.o
    0x200078ea   0x0000000c   Data   RW         2528    .data               ads1292.o
    0x200078f6   0x00000013   Data   RW         2707    .data               sps_server.o
    0x20007909   0x00000013   Data   RW         2708    .data               sps_server.o
    0x2000791c   0x00000013   Data   RW         2709    .data               sps_server.o
    0x2000792f   0x00000001   PAD
    0x20007930   0x00000004   Data   RW         2913    .data               mc_p.l(mvars.o)
    0x20007934   0x00000004   Data   RW         2914    .data               mc_p.l(mvars.o)
    0x20007938   0x00000004   Data   RW         2918    .data               mc_p.l(errno.o)


    Execution Region RW_IRAM50 (Base: 0x20008000, Size: 0x000006b8, Max: 0x000007f4, ABSOLUTE)

    Base Addr    Size         Type   Attr      Idx    E Section Name        Object

    0x20008000   0x000000d4   Zero   RW         2491    .bss                user_periph_setup.o
    0x200080d4   0x000002a4   Zero   RW         2582    .bss                dsp.o
    0x20008378   0x00000100   Zero   RW         2654    .bss                ecgtohr.o
    0x20008478   0x00000100   Zero   RW          230    HEAP                boot_vectors.o
    0x20008578   0x00000006   Zero   RW          291    retention_mem_area0  nvds.o
    0x2000857e   0x00000001   Zero   RW          315    retention_mem_area0  arch_main.o
    0x2000857f   0x00000004   Zero   RW          661    retention_mem_area0  arch_sleep.o
    0x20008583   0x00000001   PAD
    0x20008584   0x00000014   Zero   RW          715    retention_mem_area0  arch_system.o
    0x20008598   0x00000018   Zero   RW          913    retention_mem_area0  llc.obj
    0x200085b0   0x0000000c   Zero   RW         1130    retention_mem_area0  wkupct_quadec.o
    0x200085bc   0x00000001   Zero   RW         1305    retention_mem_area0  rf_580.o
    0x200085bd   0x00000001   PAD
    0x200085be   0x00000008   Zero   RW         1350    retention_mem_area0  rwble.o
    0x200085c6   0x0000000e   Zero   RW         1592    retention_mem_area0  bass.o
    0x200085d4   0x00000001   Zero   RW         1620    retention_mem_area0  bass_task.o
    0x200085d5   0x00000001   PAD
    0x200085d6   0x00000008   Zero   RW         1658    retention_mem_area0  spotar.o
    0x200085de   0x00000001   Zero   RW         1692    retention_mem_area0  spotar_task.o
    0x200085df   0x00000001   PAD
    0x200085e0   0x00000012   Zero   RW         1721    retention_mem_area0  diss.o
    0x200085f2   0x00000001   Zero   RW         1748    retention_mem_area0  diss_task.o
    0x200085f3   0x00000001   PAD
    0x200085f4   0x00000038   Zero   RW         1848    retention_mem_area0  app.o
    0x2000862c   0x00000001   Zero   RW         1987    retention_mem_area0  app_task.o
    0x2000862d   0x00000003   PAD
    0x20008630   0x00000018   Zero   RW         2119    retention_mem_area0  app_easy_msg_utils.o
    0x20008648   0x00000028   Zero   RW         2317    retention_mem_area0  app_easy_timer.o
    0x20008670   0x0000000a   Zero   RW         2353    retention_mem_area0  app_bass.o
    0x2000867a   0x00000002   PAD
    0x2000867c   0x0000002c   Zero   RW         2409    retention_mem_area0  app_spotar.o
    0x200086a8   0x00000010   Zero   RW         2710    retention_mem_area0  sps_server.o


    Execution Region RW_IRAM51 (Base: 0x200087f4, Size: 0x0000080c, Max: 0x0000080c, ABSOLUTE, UNINIT)

    Base Addr    Size         Type   Attr      Idx    E Section Name        Object

    0x200087f4   0x0000080c   Zero   RW          570    heap_mem_area_not_ret  jump_table.o


    Execution Region RW_IRAM52 (Base: 0x20009000, Size: 0x00000020, Max: 0x00000020, ABSOLUTE)

    Base Addr    Size         Type   Attr      Idx    E Section Name        Object

    0x20009000   0x00000020   Zero   RW            1    RW_IRAM52.bss       anon$$obj.o


    Execution Region RW_IRAM53 (Base: 0x20009020, Size: 0x00000180, Max: 0x000001e0, ABSOLUTE)

    Base Addr    Size         Type   Attr      Idx    E Section Name        Object

    0x20009020   0x00000014   Zero   RW          955    .bss                gpio.o
    0x20009034   0x00000004   Zero   RW         1054    .bss                systick.o
    0x20009038   0x00000002   Zero   RW         1098    .bss                spi.o
    0x2000903a   0x00000002   PAD
    0x2000903c   0x00000010   Zero   RW         1242    .bss                spi_flash.o
    0x2000904c   0x00000001   Zero   RW         2732    .bss                sps_server_task.o
    0x2000904d   0x00000001   Zero   RW         2761    .bss                user_sps_device.o
    0x2000904e   0x00000002   PAD
    0x20009050   0x00000150   Zero   RW         2410    spotar_patch_area   app_spotar.o


    Execution Region RW_IRAM54 (Base: 0x20009200, Size: 0x00000600, Max: 0x00000600, ABSOLUTE, UNINIT)

    Base Addr    Size         Type   Attr      Idx    E Section Name        Object

    0x20009200   0x00000600   Zero   RW          229    STACK               boot_vectors.o



  Load Region LR_RETENTION_RAM2 (Base: 0x00080768, Size: 0x00000000, Max: 0x00002898, ABSOLUTE)

    Execution Region ZI_RET20 (Base: 0x00080768, Size: 0x000010a8, Max: 0x000022b8, ABSOLUTE, UNINIT)

    Base Addr    Size         Type   Attr      Idx    E Section Name        Object

    0x00080768   0x00000600   Zero   RW          568    heap_db_area        jump_table.o
    0x00080d68   0x0000029c   Zero   RW          569    heap_env_area       jump_table.o
    0x00081004   0x0000080c   Zero   RW          571    heap_msg_area       jump_table.o


    Execution Region ZI_RET21 (Base: 0x00082a20, Size: 0x000005e0, Max: 0x000005e0, ABSOLUTE)

    Base Addr    Size         Type   Attr      Idx    E Section Name        Object

    0x00082a20   0x000005de   Zero   RW          314    BLE_exchange_memory  arch_main.o


==============================================================================

Image component sizes


      Code (inc. data)   RO Data    RW Data    ZI Data      Debug   Object Name

       288         18          0          0          0       2345   adc.o
       184          6          0         12          0       1915   ads1292.o
       156          6        196          0          0       1544   afe4400.o
      1044         30        148          0         56      19566   app.o
       352         16          0          0         10       3599   app_bass.o
       196         30         48          0          0       4704   app_bass_task.o
       104          8          0          0          0       3645   app_default_handlers.o
        72          4          0          0          0       1614   app_diss.o
       356         40         16          0          0       2946   app_diss_task.o
        72          8          0          0         24       2753   app_easy_msg_utils.o
       310         24          0          0         40       4601   app_easy_timer.o
       136         10         28          0          0       3847   app_entry_point.o
        38          0          0          0          0       1379   app_msg_utils.o
      1772         40          0          0        380      12610   app_spotar.o
       396         16         40          0          0       3674   app_spotar_task.o
       500         18         76          0          1      12448   app_task.o
       456         38          0          0       1503      28599   arch_main.o
       376         94        360          0          0      14490   arch_patch.o
       196         18          0          0          4       4149   arch_sleep.o
       848         66          0          4         20      98293   arch_system.o
       276          4          0          0          0       2205   attm_db_128.o
       236         18          0          0          0         72   atts_task.obj
       192         12         83          0         14       4953   bass.o
       788         16         80          0          1       6239   bass_task.o
       164          6          0          0          0       2393   battery.o
       108         22        160          0       1792        760   boot_vectors.o
       196         12          0          0          0        108   ch_map.obj
       164         14        291          0         18       6189   diss.o
       252         12         64          0          1       4280   diss_task.o
       132          8        328          0        676       6474   dsp.o
       516         42          4          0        256       3205   ecgtohr.o
         0          0        100          0          0       1280   gapm.o
       384         38          0          0          0        112   gapm_util.obj
       540         34          0          0         20      10883   gpio.o
        24         10          0          0          0       1261   hardfault_handler.o
         2          0        374          0       6324       4763   jump_table.o
       184         18          0          0          0         96   ke_task.obj
       636         24        520          0         24        324   llc.obj
        56          6          0          0          0       6415   nmi_handler.o
       520         36        170          0          6       9536   nvds.o
       240          6          0          0          0       5018   prf_utils.o
       748        176          0          0          1      65493   rf_580.o
       812         62          0          0          8     116696   rwble.o
       400         34          0          0          0      65246   rwip.o
       348         24          0          0          0        160   smpc.obj
       532          4          0          0          0         84   smpc_task.obj
       316          8          0          0          2       2771   spi.o
       724         14         80          0         16       6505   spi_flash.o
        84         14        114        114          8       7349   spotar.o
      1116         74         80          0          1       6406   spotar_task.o
       172         12        341         57         16       6095   sps_server.o
       564         12         88          0          1       7243   sps_server_task.o
        44          0          0          0          0        693   syscntl.o
        80         18          0          0          0     200659   system_armcm0.o
        16          4          0          0          4       1288   systick.o
       444         32          0          0          0       2943   trng.o
      2736        136          0          4        212       5984   user_periph_setup.o
       328         34          4          0          1       3599   user_sps_device.o
        56          4          0          0          0       1285   user_spss.o
       144         14         48          0          0       3413   user_spss_task.o
       120         14          0          0         12       6677   wkupct_quadec.o

    ----------------------------------------------------------------------
     24680       1994       3896        192      11500     815876   Object Totals
      1428        476         48          0         32          0   (incl. Generated)
         6          0          7          1         16          0   (incl. Padding)

    ----------------------------------------------------------------------

      Code (inc. data)   RO Data    RW Data    ZI Data      Debug   Library Member Name

        72          6          0          0          0         76   sqrt.o
         0          0          0          0          0          0   entry.o
         0          0          0          0          0          0   entry10a.o
         0          0          0          0          0          0   entry11a.o
         8          4          0          0          0          0   entry2.o
         4          0          0          0          0          0   entry5.o
         0          0          0          0          0          0   entry7b.o
         0          0          0          0          0          0   entry8b.o
         8          4          0          0          0          0   entry9a.o
        12          6          0          4          0         60   errno.o
        30          0          0          0          0          0   handlers.o
        36          8          0          0          0         68   init.o
        38          0          0          0          0         68   llsshr.o
       192         20          0          0          0        144   malloc.o
         0          0          0          8          0          0   mvars.o
        40          2          0          0          0         68   cdrcmple.o
        20          0          0          0          0         68   cfrcmple.o
        56          0          0          0          0         68   d2f.o
       356          4          0          0          0        140   dadd.o
       240          6          0          0          0         84   ddiv.o
       162          0          0          0          0         80   dsqrt.o
        40          0          0          0          0         60   f2d.o
       178          0          0          0          0        108   fadd.o
       124          0          0          0          0         72   fdiv.o
       130          0          0          0          0        144   fepilogue.o
        50          0          0          0          0         60   ffixi.o
        22          0          0          0          0         68   fflti.o
       122          0          0          0          0         72   fmul.o

    ----------------------------------------------------------------------
      1944         60          0         12          0       1508   Library Totals
         4          0          0          0          0          0   (incl. Padding)

    ----------------------------------------------------------------------

      Code (inc. data)   RO Data    RW Data    ZI Data      Debug   Library Name

        72          6          0          0          0         76   m_ps.l
       328         42          0         12          0        340   mc_p.l
      1540         12          0          0          0       1092   mf_p.l

    ----------------------------------------------------------------------
      1944         60          0         12          0       1508   Library Totals

    ----------------------------------------------------------------------

==============================================================================


      Code (inc. data)   RO Data    RW Data    ZI Data      Debug   

     26624       2054       3896        204      11500     812900   Grand Totals
     26624       2054       3896        204      11500     812900   ELF Image Totals
     26624       2054       3896        204          0          0   ROM Totals

==============================================================================

    Total RO  Size (Code + RO Data)                30520 (  29.80kB)
    Total RW  Size (RW Data + ZI Data)             11704 (  11.43kB)
    Total ROM Size (Code + RO Data + RW Data)      30724 (  30.00kB)

==============================================================================

